(lp0
(S'cppflags'
p1
ccopy_reg
_reconstructor
p2
(cino.utils
SpaceList
p3
c__builtin__
list
p4
(lp5
S'-mmcu=atmega328p'
p6
aS'-DF_CPU=16000000L'
p7
aS'-DARDUINO=105'
p8
aS'-I/usr/share/arduino/hardware/arduino/cores/arduino'
p9
aS'-ffunction-sections'
p10
aS'-fdata-sections'
p11
aS'-g'
p12
aS'-Os'
p13
aS'-w'
p14
aS'-I/usr/share/arduino/hardware/arduino/variants/standard'
p15
atp16
Rp17
tp18
a(S'version.txt'
p19
S'/usr/share/arduino/lib/version.txt'
p20
tp21
a(S'arduino_variants_dir'
p22
S'/usr/share/arduino/hardware/arduino/variants'
p23
tp24
a(S'cxx'
p25
S'/usr/share/arduino/hardware/tools/avr/bin/avr-g++'
p26
tp27
a(S'serial'
p28
S'/usr/bin/picocom'
p29
tp30
a(S'make'
p31
S'/usr/share/arduino/hardware/tools/avr/bin/make'
p32
tp33
a(S'build_dir'
p34
S'.build/uno'
p35
tp36
a(S'arduino_core_dir'
p37
S'/usr/share/arduino/hardware/arduino/cores/arduino'
p38
tp39
a(S'boards.txt'
p40
S'/usr/share/arduino/hardware/arduino/boards.txt'
p41
tp42
a(S'cxxflags'
p43
g2
(g3
g4
(lp44
S'-fno-exceptions'
p45
atp46
Rp47
tp48
a(S'cc'
p49
S'/usr/share/arduino/hardware/tools/avr/bin/avr-gcc'
p50
tp51
a(S'deps'
p52
g2
(g3
g4
(lp53
S'.build/uno/src/dependencies.d'
p54
aS'.build/uno/2014-2015-Framework/dependencies.d'
p55
aS'.build/uno/DMCC_Library/dependencies.d'
p56
atp57
Rp58
tp59
a(S'ar'
p60
S'/usr/share/arduino/hardware/tools/avr/bin/avr-ar'
p61
tp62
a(S'names'
p63
(dp64
S'cpp'
p65
S'%s.cpp'
p66
sS'obj'
p67
S'%s.o'
p68
sg52
S'%s.d'
p69
sS'lib'
p70
S'lib%s.a'
p71
stp72
a(S'cflags'
p73
g2
(g3
g4
(lp74
tp75
Rp76
tp77
a(S'arduino_libraries_dir'
p78
S'/usr/share/arduino/libraries'
p79
tp80
a(S'arduino_lib_version'
p81
g2
(cino.environment
Version
p82
c__builtin__
tuple
p83
(I1
I0
I5
tp84
tp85
Rp86
tp87
a(S'objcopy'
p88
S'/usr/share/arduino/hardware/tools/avr/bin/avr-objcopy'
p89
tp90
a(S'board_models'
p91
cino.environment
BoardModels
p92
((lp93
(lp94
S'uno'
p95
a(dp96
S'bootloader'
p97
(dp98
S'extended_fuses'
p99
S'0x05'
p100
sS'high_fuses'
p101
S'0xde'
p102
sS'low_fuses'
p103
S'0xff'
p104
sS'lock_bits'
p105
S'0x0F'
p106
sS'file'
p107
S'optiboot_atmega328.hex'
p108
sS'path'
p109
S'optiboot'
p110
sS'unlock_bits'
p111
S'0x3F'
p112
ssS'upload'
p113
(dp114
S'speed'
p115
S'115200'
p116
sS'maximum_size'
p117
S'32256'
p118
sS'protocol'
p119
S'arduino'
p120
ssS'name'
p121
S'Arduino Uno'
p122
sS'build'
p123
(dp124
S'core'
p125
S'arduino'
p126
sS'mcu'
p127
S'atmega328p'
p128
sS'f_cpu'
p129
S'16000000L'
p130
sS'variant'
p131
S'standard'
p132
ssaa(lp133
S'atmega328'
p134
a(dp135
S'bootloader'
p136
(dp137
S'extended_fuses'
p138
S'0x05'
p139
sS'high_fuses'
p140
S'0xDA'
p141
sS'low_fuses'
p142
S'0xFF'
p143
sS'lock_bits'
p144
S'0x0F'
p145
sS'file'
p146
S'ATmegaBOOT_168_atmega328.hex'
p147
sS'path'
p148
S'atmega'
p149
sS'unlock_bits'
p150
S'0x3F'
p151
ssS'upload'
p152
(dp153
S'speed'
p154
S'57600'
p155
sS'maximum_size'
p156
S'30720'
p157
sS'protocol'
p158
S'arduino'
p159
ssS'name'
p160
S'Arduino Duemilanove w/ ATmega328'
p161
sS'build'
p162
(dp163
S'core'
p164
S'arduino'
p165
sS'mcu'
p166
S'atmega328p'
p167
sS'f_cpu'
p168
S'16000000L'
p169
sS'variant'
p170
S'standard'
p171
ssaa(lp172
S'diecimila'
p173
a(dp174
S'bootloader'
p175
(dp176
S'extended_fuses'
p177
S'0x00'
p178
sS'high_fuses'
p179
S'0xdd'
p180
sS'low_fuses'
p181
S'0xff'
p182
sS'lock_bits'
p183
S'0x0F'
p184
sS'file'
p185
S'ATmegaBOOT_168_diecimila.hex'
p186
sS'path'
p187
S'atmega'
p188
sS'unlock_bits'
p189
S'0x3F'
p190
ssS'upload'
p191
(dp192
S'speed'
p193
S'19200'
p194
sS'maximum_size'
p195
S'14336'
p196
sS'protocol'
p197
S'arduino'
p198
ssS'name'
p199
S'Arduino Diecimila or Duemilanove w/ ATmega168'
p200
sS'build'
p201
(dp202
S'core'
p203
S'arduino'
p204
sS'mcu'
p205
S'atmega168'
p206
sS'f_cpu'
p207
S'16000000L'
p208
sS'variant'
p209
S'standard'
p210
ssaa(lp211
S'nano328'
p212
a(dp213
S'bootloader'
p214
(dp215
S'extended_fuses'
p216
S'0x05'
p217
sS'high_fuses'
p218
S'0xDA'
p219
sS'low_fuses'
p220
S'0xFF'
p221
sS'lock_bits'
p222
S'0x0F'
p223
sS'file'
p224
S'ATmegaBOOT_168_atmega328.hex'
p225
sS'path'
p226
S'atmega'
p227
sS'unlock_bits'
p228
S'0x3F'
p229
ssS'upload'
p230
(dp231
S'speed'
p232
S'57600'
p233
sS'maximum_size'
p234
S'30720'
p235
sS'protocol'
p236
S'arduino'
p237
ssS'name'
p238
S'Arduino Nano w/ ATmega328'
p239
sS'build'
p240
(dp241
S'core'
p242
S'arduino'
p243
sS'mcu'
p244
S'atmega328p'
p245
sS'f_cpu'
p246
S'16000000L'
p247
sS'variant'
p248
S'eightanaloginputs'
p249
ssaa(lp250
S'nano'
p251
a(dp252
S'bootloader'
p253
(dp254
S'extended_fuses'
p255
S'0x00'
p256
sS'high_fuses'
p257
S'0xdd'
p258
sS'low_fuses'
p259
S'0xff'
p260
sS'lock_bits'
p261
S'0x0F'
p262
sS'file'
p263
S'ATmegaBOOT_168_diecimila.hex'
p264
sS'path'
p265
S'atmega'
p266
sS'unlock_bits'
p267
S'0x3F'
p268
ssS'upload'
p269
(dp270
S'speed'
p271
S'19200'
p272
sS'maximum_size'
p273
S'14336'
p274
sS'protocol'
p275
S'arduino'
p276
ssS'name'
p277
S'Arduino Nano w/ ATmega168'
p278
sS'build'
p279
(dp280
S'core'
p281
S'arduino'
p282
sS'mcu'
p283
S'atmega168'
p284
sS'f_cpu'
p285
S'16000000L'
p286
sS'variant'
p287
S'eightanaloginputs'
p288
ssaa(lp289
S'mega2560'
p290
a(dp291
S'bootloader'
p292
(dp293
S'extended_fuses'
p294
S'0xFD'
p295
sS'high_fuses'
p296
S'0xD8'
p297
sS'low_fuses'
p298
S'0xFF'
p299
sS'lock_bits'
p300
S'0x0F'
p301
sS'file'
p302
S'stk500boot_v2_mega2560.hex'
p303
sS'path'
p304
S'stk500v2'
p305
sS'unlock_bits'
p306
S'0x3F'
p307
ssS'upload'
p308
(dp309
S'speed'
p310
S'115200'
p311
sS'maximum_size'
p312
S'258048'
p313
sS'protocol'
p314
S'wiring'
p315
ssS'name'
p316
S'Arduino Mega 2560 or Mega ADK'
p317
sS'build'
p318
(dp319
S'core'
p320
S'arduino'
p321
sS'mcu'
p322
S'atmega2560'
p323
sS'f_cpu'
p324
S'16000000L'
p325
sS'variant'
p326
S'mega'
p327
ssaa(lp328
S'mega'
p329
a(dp330
S'bootloader'
p331
(dp332
S'extended_fuses'
p333
S'0xF5'
p334
sS'high_fuses'
p335
S'0xDA'
p336
sS'low_fuses'
p337
S'0xFF'
p338
sS'lock_bits'
p339
S'0x0F'
p340
sS'file'
p341
S'ATmegaBOOT_168_atmega1280.hex'
p342
sS'path'
p343
S'atmega'
p344
sS'unlock_bits'
p345
S'0x3F'
p346
ssS'upload'
p347
(dp348
S'speed'
p349
S'57600'
p350
sS'maximum_size'
p351
S'126976'
p352
sS'protocol'
p353
S'arduino'
p354
ssS'name'
p355
S'Arduino Mega (ATmega1280)'
p356
sS'build'
p357
(dp358
S'core'
p359
S'arduino'
p360
sS'mcu'
p361
S'atmega1280'
p362
sS'f_cpu'
p363
S'16000000L'
p364
sS'variant'
p365
S'mega'
p366
ssaa(lp367
S'leonardo'
p368
a(dp369
S'bootloader'
p370
(dp371
S'extended_fuses'
p372
S'0xcb'
p373
sS'high_fuses'
p374
S'0xd8'
p375
sS'low_fuses'
p376
S'0xff'
p377
sS'lock_bits'
p378
S'0x2F'
p379
sS'file'
p380
S'Caterina-Leonardo.hex'
p381
sS'path'
p382
S'caterina'
p383
sS'unlock_bits'
p384
S'0x3F'
p385
ssS'upload'
p386
(dp387
S'speed'
p388
S'57600'
p389
sS'maximum_size'
p390
S'28672'
p391
sS'protocol'
p392
S'avr109'
p393
sS'disable_flushing'
p394
S'true'
p395
ssS'name'
p396
S'Arduino Leonardo'
p397
sS'build'
p398
(dp399
S'core'
p400
S'arduino'
p401
sS'f_cpu'
p402
S'16000000L'
p403
sS'vid'
p404
S'0x2341'
p405
sS'pid'
p406
S'0x8036'
p407
sS'variant'
p408
S'leonardo'
p409
sS'mcu'
p410
S'atmega32u4'
p411
ssaa(lp412
S'esplora'
p413
a(dp414
S'bootloader'
p415
(dp416
S'extended_fuses'
p417
S'0xcb'
p418
sS'high_fuses'
p419
S'0xd8'
p420
sS'low_fuses'
p421
S'0xff'
p422
sS'lock_bits'
p423
S'0x2F'
p424
sS'file'
p425
S'Caterina-Esplora.hex'
p426
sS'path'
p427
S'caterina'
p428
sS'unlock_bits'
p429
S'0x3F'
p430
ssS'upload'
p431
(dp432
S'speed'
p433
S'57600'
p434
sS'maximum_size'
p435
S'28672'
p436
sS'protocol'
p437
S'avr109'
p438
sS'disable_flushing'
p439
S'true'
p440
ssS'name'
p441
S'Arduino Esplora'
p442
sS'build'
p443
(dp444
S'core'
p445
S'arduino'
p446
sS'f_cpu'
p447
S'16000000L'
p448
sS'vid'
p449
S'0x2341'
p450
sS'pid'
p451
S'0x803C'
p452
sS'variant'
p453
S'leonardo'
p454
sS'mcu'
p455
S'atmega32u4'
p456
ssaa(lp457
S'micro'
p458
a(dp459
S'bootloader'
p460
(dp461
S'extended_fuses'
p462
S'0xcb'
p463
sS'high_fuses'
p464
S'0xd8'
p465
sS'low_fuses'
p466
S'0xff'
p467
sS'lock_bits'
p468
S'0x2F'
p469
sS'file'
p470
S'Caterina-Micro.hex'
p471
sS'path'
p472
S'caterina'
p473
sS'unlock_bits'
p474
S'0x3F'
p475
ssS'upload'
p476
(dp477
S'speed'
p478
S'57600'
p479
sS'maximum_size'
p480
S'28672'
p481
sS'protocol'
p482
S'avr109'
p483
sS'disable_flushing'
p484
S'true'
p485
ssS'name'
p486
S'Arduino Micro'
p487
sS'build'
p488
(dp489
S'core'
p490
S'arduino'
p491
sS'f_cpu'
p492
S'16000000L'
p493
sS'vid'
p494
S'0x2341'
p495
sS'pid'
p496
S'0x8037'
p497
sS'variant'
p498
S'micro'
p499
sS'mcu'
p500
S'atmega32u4'
p501
ssaa(lp502
S'mini328'
p503
a(dp504
S'bootloader'
p505
(dp506
S'extended_fuses'
p507
S'0x05'
p508
sS'high_fuses'
p509
S'0xd8'
p510
sS'low_fuses'
p511
S'0xff'
p512
sS'lock_bits'
p513
S'0x0F'
p514
sS'file'
p515
S'optiboot_atmega328-Mini.hex'
p516
sS'path'
p517
S'optiboot'
p518
sS'unlock_bits'
p519
S'0x3F'
p520
ssS'upload'
p521
(dp522
S'speed'
p523
S'115200'
p524
sS'maximum_size'
p525
S'28672'
p526
sS'protocol'
p527
S'arduino'
p528
ssS'name'
p529
S'Arduino Mini w/ ATmega328'
p530
sS'build'
p531
(dp532
S'core'
p533
S'arduino'
p534
sS'mcu'
p535
S'atmega328p'
p536
sS'f_cpu'
p537
S'16000000L'
p538
sS'variant'
p539
S'eightanaloginputs'
p540
ssaa(lp541
S'mini'
p542
a(dp543
S'bootloader'
p544
(dp545
S'extended_fuses'
p546
S'0x00'
p547
sS'high_fuses'
p548
S'0xdd'
p549
sS'low_fuses'
p550
S'0xff'
p551
sS'lock_bits'
p552
S'0x0F'
p553
sS'file'
p554
S'ATmegaBOOT_168_ng.hex'
p555
sS'path'
p556
S'atmega'
p557
sS'unlock_bits'
p558
S'0x3F'
p559
ssS'upload'
p560
(dp561
S'speed'
p562
S'19200'
p563
sS'maximum_size'
p564
S'14336'
p565
sS'protocol'
p566
S'arduino'
p567
ssS'name'
p568
S'Arduino Mini w/ ATmega168'
p569
sS'build'
p570
(dp571
S'core'
p572
S'arduino'
p573
sS'mcu'
p574
S'atmega168'
p575
sS'f_cpu'
p576
S'16000000L'
p577
sS'variant'
p578
S'eightanaloginputs'
p579
ssaa(lp580
S'ethernet'
p581
a(dp582
S'bootloader'
p583
(dp584
S'extended_fuses'
p585
S'0x05'
p586
sS'high_fuses'
p587
S'0xde'
p588
sS'low_fuses'
p589
S'0xff'
p590
sS'lock_bits'
p591
S'0x0F'
p592
sS'file'
p593
S'optiboot_atmega328.hex'
p594
sS'path'
p595
S'optiboot'
p596
sS'unlock_bits'
p597
S'0x3F'
p598
ssS'upload'
p599
(dp600
S'speed'
p601
S'115200'
p602
sS'maximum_size'
p603
S'32256'
p604
sS'protocol'
p605
S'arduino'
p606
ssS'name'
p607
S'Arduino Ethernet'
p608
sS'build'
p609
(dp610
S'f_cpu'
p611
S'16000000L'
p612
sS'mcu'
p613
S'atmega328p'
p614
sS'variant'
p615
S'standard'
p616
sS'core'
p617
S'arduino'
p618
ssaa(lp619
S'fio'
p620
a(dp621
S'bootloader'
p622
(dp623
S'extended_fuses'
p624
S'0x05'
p625
sS'high_fuses'
p626
S'0xDA'
p627
sS'low_fuses'
p628
S'0xFF'
p629
sS'lock_bits'
p630
S'0x0F'
p631
sS'file'
p632
S'ATmegaBOOT_168_atmega328_pro_8MHz.hex'
p633
sS'path'
p634
S'arduino:atmega'
p635
sS'unlock_bits'
p636
S'0x3F'
p637
ssS'upload'
p638
(dp639
S'speed'
p640
S'57600'
p641
sS'maximum_size'
p642
S'30720'
p643
sS'protocol'
p644
S'arduino'
p645
ssS'name'
p646
S'Arduino Fio'
p647
sS'build'
p648
(dp649
S'core'
p650
S'arduino'
p651
sS'mcu'
p652
S'atmega328p'
p653
sS'f_cpu'
p654
S'8000000L'
p655
sS'variant'
p656
S'eightanaloginputs'
p657
ssaa(lp658
S'bt328'
p659
a(dp660
S'bootloader'
p661
(dp662
S'extended_fuses'
p663
S'0x05'
p664
sS'high_fuses'
p665
S'0xd8'
p666
sS'low_fuses'
p667
S'0xff'
p668
sS'lock_bits'
p669
S'0x0F'
p670
sS'file'
p671
S'ATmegaBOOT_168_atmega328_bt.hex'
p672
sS'path'
p673
S'bt'
p674
sS'unlock_bits'
p675
S'0x3F'
p676
ssS'upload'
p677
(dp678
S'speed'
p679
S'19200'
p680
sS'maximum_size'
p681
S'28672'
p682
sS'protocol'
p683
S'arduino'
p684
sS'disable_flushing'
p685
S'true'
p686
ssS'name'
p687
S'Arduino BT w/ ATmega328'
p688
sS'build'
p689
(dp690
S'core'
p691
S'arduino'
p692
sS'mcu'
p693
S'atmega328p'
p694
sS'f_cpu'
p695
S'16000000L'
p696
sS'variant'
p697
S'eightanaloginputs'
p698
ssaa(lp699
S'bt'
p700
a(dp701
S'bootloader'
p702
(dp703
S'extended_fuses'
p704
S'0x00'
p705
sS'high_fuses'
p706
S'0xdd'
p707
sS'low_fuses'
p708
S'0xff'
p709
sS'lock_bits'
p710
S'0x0F'
p711
sS'file'
p712
S'ATmegaBOOT_168.hex'
p713
sS'path'
p714
S'bt'
p715
sS'unlock_bits'
p716
S'0x3F'
p717
ssS'upload'
p718
(dp719
S'speed'
p720
S'19200'
p721
sS'maximum_size'
p722
S'14336'
p723
sS'protocol'
p724
S'arduino'
p725
sS'disable_flushing'
p726
S'true'
p727
ssS'name'
p728
S'Arduino BT w/ ATmega168'
p729
sS'build'
p730
(dp731
S'core'
p732
S'arduino'
p733
sS'mcu'
p734
S'atmega168'
p735
sS'f_cpu'
p736
S'16000000L'
p737
sS'variant'
p738
S'eightanaloginputs'
p739
ssaa(lp740
S'LilyPadUSB'
p741
a(dp742
S'bootloader'
p743
(dp744
S'extended_fuses'
p745
S'0xce'
p746
sS'high_fuses'
p747
S'0xd8'
p748
sS'low_fuses'
p749
S'0xff'
p750
sS'lock_bits'
p751
S'0x2F'
p752
sS'file'
p753
S'Caterina-LilyPadUSB.hex'
p754
sS'path'
p755
S'caterina-LilyPadUSB'
p756
sS'unlock_bits'
p757
S'0x3F'
p758
ssS'upload'
p759
(dp760
S'speed'
p761
S'57600'
p762
sS'maximum_size'
p763
S'28672'
p764
sS'protocol'
p765
S'avr109'
p766
sS'disable_flushing'
p767
S'true'
p768
ssS'name'
p769
S'LilyPad Arduino USB'
p770
sS'build'
p771
(dp772
S'core'
p773
S'arduino'
p774
sS'f_cpu'
p775
S'8000000L'
p776
sS'vid'
p777
S'0x1B4F'
p778
sS'pid'
p779
S'0x9208'
p780
sS'variant'
p781
S'leonardo'
p782
sS'mcu'
p783
S'atmega32u4'
p784
ssaa(lp785
S'lilypad328'
p786
a(dp787
S'bootloader'
p788
(dp789
S'extended_fuses'
p790
S'0x05'
p791
sS'high_fuses'
p792
S'0xDA'
p793
sS'low_fuses'
p794
S'0xFF'
p795
sS'lock_bits'
p796
S'0x0F'
p797
sS'file'
p798
S'ATmegaBOOT_168_atmega328_pro_8MHz.hex'
p799
sS'path'
p800
S'atmega'
p801
sS'unlock_bits'
p802
S'0x3F'
p803
ssS'upload'
p804
(dp805
S'speed'
p806
S'57600'
p807
sS'maximum_size'
p808
S'30720'
p809
sS'protocol'
p810
S'arduino'
p811
ssS'name'
p812
S'LilyPad Arduino w/ ATmega328'
p813
sS'build'
p814
(dp815
S'core'
p816
S'arduino'
p817
sS'mcu'
p818
S'atmega328p'
p819
sS'f_cpu'
p820
S'8000000L'
p821
sS'variant'
p822
S'standard'
p823
ssaa(lp824
S'lilypad'
p825
a(dp826
S'bootloader'
p827
(dp828
S'extended_fuses'
p829
S'0x00'
p830
sS'high_fuses'
p831
S'0xdd'
p832
sS'low_fuses'
p833
S'0xe2'
p834
sS'lock_bits'
p835
S'0x0F'
p836
sS'file'
p837
S'LilyPadBOOT_168.hex'
p838
sS'path'
p839
S'lilypad'
p840
sS'unlock_bits'
p841
S'0x3F'
p842
ssS'upload'
p843
(dp844
S'speed'
p845
S'19200'
p846
sS'maximum_size'
p847
S'14336'
p848
sS'protocol'
p849
S'arduino'
p850
ssS'name'
p851
S'LilyPad Arduino w/ ATmega168'
p852
sS'build'
p853
(dp854
S'core'
p855
S'arduino'
p856
sS'mcu'
p857
S'atmega168'
p858
sS'f_cpu'
p859
S'8000000L'
p860
sS'variant'
p861
S'standard'
p862
ssaa(lp863
S'pro5v328'
p864
a(dp865
S'bootloader'
p866
(dp867
S'extended_fuses'
p868
S'0x05'
p869
sS'high_fuses'
p870
S'0xDA'
p871
sS'low_fuses'
p872
S'0xFF'
p873
sS'lock_bits'
p874
S'0x0F'
p875
sS'file'
p876
S'ATmegaBOOT_168_atmega328.hex'
p877
sS'path'
p878
S'atmega'
p879
sS'unlock_bits'
p880
S'0x3F'
p881
ssS'upload'
p882
(dp883
S'speed'
p884
S'57600'
p885
sS'maximum_size'
p886
S'30720'
p887
sS'protocol'
p888
S'arduino'
p889
ssS'name'
p890
S'Arduino Pro or Pro Mini (5V, 16 MHz) w/ ATmega328'
p891
sS'build'
p892
(dp893
S'core'
p894
S'arduino'
p895
sS'mcu'
p896
S'atmega328p'
p897
sS'f_cpu'
p898
S'16000000L'
p899
sS'variant'
p900
S'standard'
p901
ssaa(lp902
S'pro5v'
p903
a(dp904
S'bootloader'
p905
(dp906
S'extended_fuses'
p907
S'0x00'
p908
sS'high_fuses'
p909
S'0xdd'
p910
sS'low_fuses'
p911
S'0xff'
p912
sS'lock_bits'
p913
S'0x0F'
p914
sS'file'
p915
S'ATmegaBOOT_168_diecimila.hex'
p916
sS'path'
p917
S'atmega'
p918
sS'unlock_bits'
p919
S'0x3F'
p920
ssS'upload'
p921
(dp922
S'speed'
p923
S'19200'
p924
sS'maximum_size'
p925
S'14336'
p926
sS'protocol'
p927
S'arduino'
p928
ssS'name'
p929
S'Arduino Pro or Pro Mini (5V, 16 MHz) w/ ATmega168'
p930
sS'build'
p931
(dp932
S'core'
p933
S'arduino'
p934
sS'mcu'
p935
S'atmega168'
p936
sS'f_cpu'
p937
S'16000000L'
p938
sS'variant'
p939
S'standard'
p940
ssaa(lp941
S'pro328'
p942
a(dp943
S'bootloader'
p944
(dp945
S'extended_fuses'
p946
S'0x05'
p947
sS'high_fuses'
p948
S'0xDA'
p949
sS'low_fuses'
p950
S'0xFF'
p951
sS'lock_bits'
p952
S'0x0F'
p953
sS'file'
p954
S'ATmegaBOOT_168_atmega328_pro_8MHz.hex'
p955
sS'path'
p956
S'atmega'
p957
sS'unlock_bits'
p958
S'0x3F'
p959
ssS'upload'
p960
(dp961
S'speed'
p962
S'57600'
p963
sS'maximum_size'
p964
S'30720'
p965
sS'protocol'
p966
S'arduino'
p967
ssS'name'
p968
S'Arduino Pro or Pro Mini (3.3V, 8 MHz) w/ ATmega328'
p969
sS'build'
p970
(dp971
S'core'
p972
S'arduino'
p973
sS'mcu'
p974
S'atmega328p'
p975
sS'f_cpu'
p976
S'8000000L'
p977
sS'variant'
p978
S'standard'
p979
ssaa(lp980
S'pro'
p981
a(dp982
S'bootloader'
p983
(dp984
S'extended_fuses'
p985
S'0x00'
p986
sS'high_fuses'
p987
S'0xdd'
p988
sS'low_fuses'
p989
S'0xc6'
p990
sS'lock_bits'
p991
S'0x0F'
p992
sS'file'
p993
S'ATmegaBOOT_168_pro_8MHz.hex'
p994
sS'path'
p995
S'atmega'
p996
sS'unlock_bits'
p997
S'0x3F'
p998
ssS'upload'
p999
(dp1000
S'speed'
p1001
S'19200'
p1002
sS'maximum_size'
p1003
S'14336'
p1004
sS'protocol'
p1005
S'arduino'
p1006
ssS'name'
p1007
S'Arduino Pro or Pro Mini (3.3V, 8 MHz) w/ ATmega168'
p1008
sS'build'
p1009
(dp1010
S'core'
p1011
S'arduino'
p1012
sS'mcu'
p1013
S'atmega168'
p1014
sS'f_cpu'
p1015
S'8000000L'
p1016
sS'variant'
p1017
S'standard'
p1018
ssaa(lp1019
S'atmega168'
p1020
a(dp1021
S'bootloader'
p1022
(dp1023
S'extended_fuses'
p1024
S'0x00'
p1025
sS'high_fuses'
p1026
S'0xdd'
p1027
sS'low_fuses'
p1028
S'0xff'
p1029
sS'lock_bits'
p1030
S'0x0F'
p1031
sS'file'
p1032
S'ATmegaBOOT_168_ng.hex'
p1033
sS'path'
p1034
S'atmega'
p1035
sS'unlock_bits'
p1036
S'0x3F'
p1037
ssS'upload'
p1038
(dp1039
S'speed'
p1040
S'19200'
p1041
sS'maximum_size'
p1042
S'14336'
p1043
sS'protocol'
p1044
S'arduino'
p1045
ssS'name'
p1046
S'Arduino NG or older w/ ATmega168'
p1047
sS'build'
p1048
(dp1049
S'core'
p1050
S'arduino'
p1051
sS'mcu'
p1052
S'atmega168'
p1053
sS'f_cpu'
p1054
S'16000000L'
p1055
sS'variant'
p1056
S'standard'
p1057
ssaa(lp1058
S'atmega8'
p1059
a(dp1060
S'bootloader'
p1061
(dp1062
S'high_fuses'
p1063
S'0xca'
p1064
sS'low_fuses'
p1065
S'0xdf'
p1066
sS'lock_bits'
p1067
S'0x0F'
p1068
sS'file'
p1069
S'ATmegaBOOT-prod-firmware-2009-11-07.hex'
p1070
sS'path'
p1071
S'atmega8'
p1072
sS'unlock_bits'
p1073
S'0x3F'
p1074
ssS'upload'
p1075
(dp1076
S'speed'
p1077
S'19200'
p1078
sS'maximum_size'
p1079
S'7168'
p1080
sS'protocol'
p1081
S'arduino'
p1082
ssS'name'
p1083
S'Arduino NG or older w/ ATmega8'
p1084
sS'build'
p1085
(dp1086
S'core'
p1087
S'arduino'
p1088
sS'mcu'
p1089
S'atmega8'
p1090
sS'f_cpu'
p1091
S'16000000L'
p1092
sS'variant'
p1093
S'standard'
p1094
ssaa(lp1095
S'robotControl'
p1096
a(dp1097
S'bootloader'
p1098
(dp1099
S'extended_fuses'
p1100
S'0xcb'
p1101
sS'high_fuses'
p1102
S'0xd8'
p1103
sS'low_fuses'
p1104
S'0xff'
p1105
sS'lock_bits'
p1106
S'0x2F'
p1107
sS'file'
p1108
S'Caterina-Robot-Control.hex'
p1109
sS'path'
p1110
S'caterina-Arduino_Robot'
p1111
sS'unlock_bits'
p1112
S'0x3F'
p1113
ssS'upload'
p1114
(dp1115
S'speed'
p1116
S'57600'
p1117
sS'maximum_size'
p1118
S'28672'
p1119
sS'protocol'
p1120
S'avr109'
p1121
sS'disable_flushing'
p1122
S'true'
p1123
ssS'name'
p1124
S'Arduino Robot Control'
p1125
sS'build'
p1126
(dp1127
S'core'
p1128
S'robot'
p1129
sS'f_cpu'
p1130
S'16000000L'
p1131
sS'vid'
p1132
S'0x2341'
p1133
sS'pid'
p1134
S'0x8038'
p1135
sS'variant'
p1136
S'robot_control'
p1137
sS'mcu'
p1138
S'atmega32u4'
p1139
ssaa(lp1140
S'robotMotor'
p1141
a(dp1142
S'bootloader'
p1143
(dp1144
S'extended_fuses'
p1145
S'0xcb'
p1146
sS'high_fuses'
p1147
S'0xd8'
p1148
sS'low_fuses'
p1149
S'0xff'
p1150
sS'lock_bits'
p1151
S'0x2F'
p1152
sS'file'
p1153
S'Caterina-Robot-Motor.hex'
p1154
sS'path'
p1155
S'caterina-Arduino_Robot'
p1156
sS'unlock_bits'
p1157
S'0x3F'
p1158
ssS'upload'
p1159
(dp1160
S'speed'
p1161
S'57600'
p1162
sS'maximum_size'
p1163
S'28672'
p1164
sS'protocol'
p1165
S'avr109'
p1166
sS'disable_flushing'
p1167
S'true'
p1168
ssS'name'
p1169
S'Arduino Robot Motor'
p1170
sS'build'
p1171
(dp1172
S'core'
p1173
S'robot'
p1174
sS'f_cpu'
p1175
S'16000000L'
p1176
sS'vid'
p1177
S'0x2341'
p1178
sS'pid'
p1179
S'0x8039'
p1180
sS'variant'
p1181
S'robot_motor'
p1182
sS'mcu'
p1183
S'atmega32u4'
p1184
ssaatp1185
Rp1186
(dp1187
S'default'
p1188
S'uno'
p1189
sbtp1190
a(S'ldflags'
p1191
g2
(g3
g4
(lp1192
g6
aS'-Wl,-Os'
p1193
aS'-Wl,--gc-sections'
p1194
atp1195
Rp1196
tp1197
a.