(lp0
(S'cppflags'
p1
ccopy_reg
_reconstructor
p2
(cino.utils
SpaceList
p3
c__builtin__
list
p4
(lp5
S'-mmcu=atmega328p'
p6
aS'-DF_CPU=16000000L'
p7
aS'-DARDUINO=105'
p8
aS'-I/usr/share/arduino/hardware/arduino/cores/arduino'
p9
aS'-ffunction-sections'
p10
aS'-fdata-sections'
p11
aS'-g'
p12
aS'-Os'
p13
aS'-w'
p14
aS'-I/usr/share/arduino/hardware/arduino/variants/standard'
p15
atp16
Rp17
tp18
a(S'version.txt'
p19
S'/usr/share/arduino/lib/version.txt'
p20
tp21
a(S'cxx'
p22
S'/usr/share/arduino/hardware/tools/avr/bin/avr-g++'
p23
tp24
a(S'make'
p25
S'/usr/share/arduino/hardware/tools/avr/bin/make'
p26
tp27
a(S'cflags'
p28
g2
(g3
g4
(lp29
tp30
Rp31
tp32
a(S'build_dir'
p33
S'.build/uno'
p34
tp35
a(S'arduino_core_dir'
p36
S'/usr/share/arduino/hardware/arduino/cores/arduino'
p37
tp38
a(S'boards.txt'
p39
S'/usr/share/arduino/hardware/arduino/boards.txt'
p40
tp41
a(S'cxxflags'
p42
g2
(g3
g4
(lp43
S'-fno-exceptions'
p44
atp45
Rp46
tp47
a(S'arduino_variants_dir'
p48
S'/usr/share/arduino/hardware/arduino/variants'
p49
tp50
a(S'ar'
p51
S'/usr/share/arduino/hardware/tools/avr/bin/avr-ar'
p52
tp53
a(S'board_models'
p54
cino.environment
BoardModels
p55
((lp56
(lp57
S'uno'
p58
a(dp59
S'build'
p60
(dp61
S'core'
p62
S'arduino'
p63
sS'mcu'
p64
S'atmega328p'
p65
sS'f_cpu'
p66
S'16000000L'
p67
sS'variant'
p68
S'standard'
p69
ssS'bootloader'
p70
(dp71
S'extended_fuses'
p72
S'0x05'
p73
sS'high_fuses'
p74
S'0xde'
p75
sS'low_fuses'
p76
S'0xff'
p77
sS'lock_bits'
p78
S'0x0F'
p79
sS'file'
p80
S'optiboot_atmega328.hex'
p81
sS'path'
p82
S'optiboot'
p83
sS'unlock_bits'
p84
S'0x3F'
p85
ssS'upload'
p86
(dp87
S'protocol'
p88
S'arduino'
p89
sS'maximum_size'
p90
S'32256'
p91
sS'speed'
p92
S'115200'
p93
ssS'name'
p94
S'Arduino Uno'
p95
saa(lp96
S'atmega328'
p97
a(dp98
S'build'
p99
(dp100
S'core'
p101
S'arduino'
p102
sS'mcu'
p103
S'atmega328p'
p104
sS'f_cpu'
p105
S'16000000L'
p106
sS'variant'
p107
S'standard'
p108
ssS'bootloader'
p109
(dp110
S'extended_fuses'
p111
S'0x05'
p112
sS'high_fuses'
p113
S'0xDA'
p114
sS'low_fuses'
p115
S'0xFF'
p116
sS'lock_bits'
p117
S'0x0F'
p118
sS'file'
p119
S'ATmegaBOOT_168_atmega328.hex'
p120
sS'path'
p121
S'atmega'
p122
sS'unlock_bits'
p123
S'0x3F'
p124
ssS'upload'
p125
(dp126
S'protocol'
p127
S'arduino'
p128
sS'maximum_size'
p129
S'30720'
p130
sS'speed'
p131
S'57600'
p132
ssS'name'
p133
S'Arduino Duemilanove w/ ATmega328'
p134
saa(lp135
S'diecimila'
p136
a(dp137
S'build'
p138
(dp139
S'core'
p140
S'arduino'
p141
sS'mcu'
p142
S'atmega168'
p143
sS'f_cpu'
p144
S'16000000L'
p145
sS'variant'
p146
S'standard'
p147
ssS'bootloader'
p148
(dp149
S'extended_fuses'
p150
S'0x00'
p151
sS'high_fuses'
p152
S'0xdd'
p153
sS'low_fuses'
p154
S'0xff'
p155
sS'lock_bits'
p156
S'0x0F'
p157
sS'file'
p158
S'ATmegaBOOT_168_diecimila.hex'
p159
sS'path'
p160
S'atmega'
p161
sS'unlock_bits'
p162
S'0x3F'
p163
ssS'upload'
p164
(dp165
S'protocol'
p166
S'arduino'
p167
sS'maximum_size'
p168
S'14336'
p169
sS'speed'
p170
S'19200'
p171
ssS'name'
p172
S'Arduino Diecimila or Duemilanove w/ ATmega168'
p173
saa(lp174
S'nano328'
p175
a(dp176
S'build'
p177
(dp178
S'core'
p179
S'arduino'
p180
sS'mcu'
p181
S'atmega328p'
p182
sS'f_cpu'
p183
S'16000000L'
p184
sS'variant'
p185
S'eightanaloginputs'
p186
ssS'bootloader'
p187
(dp188
S'extended_fuses'
p189
S'0x05'
p190
sS'high_fuses'
p191
S'0xDA'
p192
sS'low_fuses'
p193
S'0xFF'
p194
sS'lock_bits'
p195
S'0x0F'
p196
sS'file'
p197
S'ATmegaBOOT_168_atmega328.hex'
p198
sS'path'
p199
S'atmega'
p200
sS'unlock_bits'
p201
S'0x3F'
p202
ssS'upload'
p203
(dp204
S'protocol'
p205
S'arduino'
p206
sS'maximum_size'
p207
S'30720'
p208
sS'speed'
p209
S'57600'
p210
ssS'name'
p211
S'Arduino Nano w/ ATmega328'
p212
saa(lp213
S'nano'
p214
a(dp215
S'build'
p216
(dp217
S'core'
p218
S'arduino'
p219
sS'mcu'
p220
S'atmega168'
p221
sS'f_cpu'
p222
S'16000000L'
p223
sS'variant'
p224
S'eightanaloginputs'
p225
ssS'bootloader'
p226
(dp227
S'extended_fuses'
p228
S'0x00'
p229
sS'high_fuses'
p230
S'0xdd'
p231
sS'low_fuses'
p232
S'0xff'
p233
sS'lock_bits'
p234
S'0x0F'
p235
sS'file'
p236
S'ATmegaBOOT_168_diecimila.hex'
p237
sS'path'
p238
S'atmega'
p239
sS'unlock_bits'
p240
S'0x3F'
p241
ssS'upload'
p242
(dp243
S'protocol'
p244
S'arduino'
p245
sS'maximum_size'
p246
S'14336'
p247
sS'speed'
p248
S'19200'
p249
ssS'name'
p250
S'Arduino Nano w/ ATmega168'
p251
saa(lp252
S'mega2560'
p253
a(dp254
S'build'
p255
(dp256
S'core'
p257
S'arduino'
p258
sS'mcu'
p259
S'atmega2560'
p260
sS'f_cpu'
p261
S'16000000L'
p262
sS'variant'
p263
S'mega'
p264
ssS'bootloader'
p265
(dp266
S'extended_fuses'
p267
S'0xFD'
p268
sS'high_fuses'
p269
S'0xD8'
p270
sS'low_fuses'
p271
S'0xFF'
p272
sS'lock_bits'
p273
S'0x0F'
p274
sS'file'
p275
S'stk500boot_v2_mega2560.hex'
p276
sS'path'
p277
S'stk500v2'
p278
sS'unlock_bits'
p279
S'0x3F'
p280
ssS'upload'
p281
(dp282
S'protocol'
p283
S'wiring'
p284
sS'maximum_size'
p285
S'258048'
p286
sS'speed'
p287
S'115200'
p288
ssS'name'
p289
S'Arduino Mega 2560 or Mega ADK'
p290
saa(lp291
S'mega'
p292
a(dp293
S'build'
p294
(dp295
S'core'
p296
S'arduino'
p297
sS'mcu'
p298
S'atmega1280'
p299
sS'f_cpu'
p300
S'16000000L'
p301
sS'variant'
p302
S'mega'
p303
ssS'bootloader'
p304
(dp305
S'extended_fuses'
p306
S'0xF5'
p307
sS'high_fuses'
p308
S'0xDA'
p309
sS'low_fuses'
p310
S'0xFF'
p311
sS'lock_bits'
p312
S'0x0F'
p313
sS'file'
p314
S'ATmegaBOOT_168_atmega1280.hex'
p315
sS'path'
p316
S'atmega'
p317
sS'unlock_bits'
p318
S'0x3F'
p319
ssS'upload'
p320
(dp321
S'protocol'
p322
S'arduino'
p323
sS'maximum_size'
p324
S'126976'
p325
sS'speed'
p326
S'57600'
p327
ssS'name'
p328
S'Arduino Mega (ATmega1280)'
p329
saa(lp330
S'leonardo'
p331
a(dp332
S'build'
p333
(dp334
S'core'
p335
S'arduino'
p336
sS'f_cpu'
p337
S'16000000L'
p338
sS'vid'
p339
S'0x2341'
p340
sS'pid'
p341
S'0x8036'
p342
sS'variant'
p343
S'leonardo'
p344
sS'mcu'
p345
S'atmega32u4'
p346
ssS'bootloader'
p347
(dp348
S'extended_fuses'
p349
S'0xcb'
p350
sS'high_fuses'
p351
S'0xd8'
p352
sS'low_fuses'
p353
S'0xff'
p354
sS'lock_bits'
p355
S'0x2F'
p356
sS'file'
p357
S'Caterina-Leonardo.hex'
p358
sS'path'
p359
S'caterina'
p360
sS'unlock_bits'
p361
S'0x3F'
p362
ssS'upload'
p363
(dp364
S'protocol'
p365
S'avr109'
p366
sS'maximum_size'
p367
S'28672'
p368
sS'speed'
p369
S'57600'
p370
sS'disable_flushing'
p371
S'true'
p372
ssS'name'
p373
S'Arduino Leonardo'
p374
saa(lp375
S'esplora'
p376
a(dp377
S'build'
p378
(dp379
S'core'
p380
S'arduino'
p381
sS'f_cpu'
p382
S'16000000L'
p383
sS'vid'
p384
S'0x2341'
p385
sS'pid'
p386
S'0x803C'
p387
sS'variant'
p388
S'leonardo'
p389
sS'mcu'
p390
S'atmega32u4'
p391
ssS'bootloader'
p392
(dp393
S'extended_fuses'
p394
S'0xcb'
p395
sS'high_fuses'
p396
S'0xd8'
p397
sS'low_fuses'
p398
S'0xff'
p399
sS'lock_bits'
p400
S'0x2F'
p401
sS'file'
p402
S'Caterina-Esplora.hex'
p403
sS'path'
p404
S'caterina'
p405
sS'unlock_bits'
p406
S'0x3F'
p407
ssS'upload'
p408
(dp409
S'protocol'
p410
S'avr109'
p411
sS'maximum_size'
p412
S'28672'
p413
sS'speed'
p414
S'57600'
p415
sS'disable_flushing'
p416
S'true'
p417
ssS'name'
p418
S'Arduino Esplora'
p419
saa(lp420
S'micro'
p421
a(dp422
S'build'
p423
(dp424
S'core'
p425
S'arduino'
p426
sS'f_cpu'
p427
S'16000000L'
p428
sS'vid'
p429
S'0x2341'
p430
sS'pid'
p431
S'0x8037'
p432
sS'variant'
p433
S'micro'
p434
sS'mcu'
p435
S'atmega32u4'
p436
ssS'bootloader'
p437
(dp438
S'extended_fuses'
p439
S'0xcb'
p440
sS'high_fuses'
p441
S'0xd8'
p442
sS'low_fuses'
p443
S'0xff'
p444
sS'lock_bits'
p445
S'0x2F'
p446
sS'file'
p447
S'Caterina-Micro.hex'
p448
sS'path'
p449
S'caterina'
p450
sS'unlock_bits'
p451
S'0x3F'
p452
ssS'upload'
p453
(dp454
S'protocol'
p455
S'avr109'
p456
sS'maximum_size'
p457
S'28672'
p458
sS'speed'
p459
S'57600'
p460
sS'disable_flushing'
p461
S'true'
p462
ssS'name'
p463
S'Arduino Micro'
p464
saa(lp465
S'mini328'
p466
a(dp467
S'build'
p468
(dp469
S'core'
p470
S'arduino'
p471
sS'mcu'
p472
S'atmega328p'
p473
sS'f_cpu'
p474
S'16000000L'
p475
sS'variant'
p476
S'eightanaloginputs'
p477
ssS'bootloader'
p478
(dp479
S'extended_fuses'
p480
S'0x05'
p481
sS'high_fuses'
p482
S'0xd8'
p483
sS'low_fuses'
p484
S'0xff'
p485
sS'lock_bits'
p486
S'0x0F'
p487
sS'file'
p488
S'optiboot_atmega328-Mini.hex'
p489
sS'path'
p490
S'optiboot'
p491
sS'unlock_bits'
p492
S'0x3F'
p493
ssS'upload'
p494
(dp495
S'protocol'
p496
S'arduino'
p497
sS'maximum_size'
p498
S'28672'
p499
sS'speed'
p500
S'115200'
p501
ssS'name'
p502
S'Arduino Mini w/ ATmega328'
p503
saa(lp504
S'mini'
p505
a(dp506
S'build'
p507
(dp508
S'core'
p509
S'arduino'
p510
sS'mcu'
p511
S'atmega168'
p512
sS'f_cpu'
p513
S'16000000L'
p514
sS'variant'
p515
S'eightanaloginputs'
p516
ssS'bootloader'
p517
(dp518
S'extended_fuses'
p519
S'0x00'
p520
sS'high_fuses'
p521
S'0xdd'
p522
sS'low_fuses'
p523
S'0xff'
p524
sS'lock_bits'
p525
S'0x0F'
p526
sS'file'
p527
S'ATmegaBOOT_168_ng.hex'
p528
sS'path'
p529
S'atmega'
p530
sS'unlock_bits'
p531
S'0x3F'
p532
ssS'upload'
p533
(dp534
S'protocol'
p535
S'arduino'
p536
sS'maximum_size'
p537
S'14336'
p538
sS'speed'
p539
S'19200'
p540
ssS'name'
p541
S'Arduino Mini w/ ATmega168'
p542
saa(lp543
S'ethernet'
p544
a(dp545
S'build'
p546
(dp547
S'variant'
p548
S'standard'
p549
sS'mcu'
p550
S'atmega328p'
p551
sS'f_cpu'
p552
S'16000000L'
p553
sS'core'
p554
S'arduino'
p555
ssS'bootloader'
p556
(dp557
S'extended_fuses'
p558
S'0x05'
p559
sS'high_fuses'
p560
S'0xde'
p561
sS'low_fuses'
p562
S'0xff'
p563
sS'lock_bits'
p564
S'0x0F'
p565
sS'file'
p566
S'optiboot_atmega328.hex'
p567
sS'path'
p568
S'optiboot'
p569
sS'unlock_bits'
p570
S'0x3F'
p571
ssS'upload'
p572
(dp573
S'protocol'
p574
S'arduino'
p575
sS'maximum_size'
p576
S'32256'
p577
sS'speed'
p578
S'115200'
p579
ssS'name'
p580
S'Arduino Ethernet'
p581
saa(lp582
S'fio'
p583
a(dp584
S'build'
p585
(dp586
S'core'
p587
S'arduino'
p588
sS'mcu'
p589
S'atmega328p'
p590
sS'f_cpu'
p591
S'8000000L'
p592
sS'variant'
p593
S'eightanaloginputs'
p594
ssS'bootloader'
p595
(dp596
S'extended_fuses'
p597
S'0x05'
p598
sS'high_fuses'
p599
S'0xDA'
p600
sS'low_fuses'
p601
S'0xFF'
p602
sS'lock_bits'
p603
S'0x0F'
p604
sS'file'
p605
S'ATmegaBOOT_168_atmega328_pro_8MHz.hex'
p606
sS'path'
p607
S'arduino:atmega'
p608
sS'unlock_bits'
p609
S'0x3F'
p610
ssS'upload'
p611
(dp612
S'protocol'
p613
S'arduino'
p614
sS'maximum_size'
p615
S'30720'
p616
sS'speed'
p617
S'57600'
p618
ssS'name'
p619
S'Arduino Fio'
p620
saa(lp621
S'bt328'
p622
a(dp623
S'build'
p624
(dp625
S'core'
p626
S'arduino'
p627
sS'mcu'
p628
S'atmega328p'
p629
sS'f_cpu'
p630
S'16000000L'
p631
sS'variant'
p632
S'eightanaloginputs'
p633
ssS'bootloader'
p634
(dp635
S'extended_fuses'
p636
S'0x05'
p637
sS'high_fuses'
p638
S'0xd8'
p639
sS'low_fuses'
p640
S'0xff'
p641
sS'lock_bits'
p642
S'0x0F'
p643
sS'file'
p644
S'ATmegaBOOT_168_atmega328_bt.hex'
p645
sS'path'
p646
S'bt'
p647
sS'unlock_bits'
p648
S'0x3F'
p649
ssS'upload'
p650
(dp651
S'protocol'
p652
S'arduino'
p653
sS'maximum_size'
p654
S'28672'
p655
sS'speed'
p656
S'19200'
p657
sS'disable_flushing'
p658
S'true'
p659
ssS'name'
p660
S'Arduino BT w/ ATmega328'
p661
saa(lp662
S'bt'
p663
a(dp664
S'build'
p665
(dp666
S'core'
p667
S'arduino'
p668
sS'mcu'
p669
S'atmega168'
p670
sS'f_cpu'
p671
S'16000000L'
p672
sS'variant'
p673
S'eightanaloginputs'
p674
ssS'bootloader'
p675
(dp676
S'extended_fuses'
p677
S'0x00'
p678
sS'high_fuses'
p679
S'0xdd'
p680
sS'low_fuses'
p681
S'0xff'
p682
sS'lock_bits'
p683
S'0x0F'
p684
sS'file'
p685
S'ATmegaBOOT_168.hex'
p686
sS'path'
p687
S'bt'
p688
sS'unlock_bits'
p689
S'0x3F'
p690
ssS'upload'
p691
(dp692
S'protocol'
p693
S'arduino'
p694
sS'maximum_size'
p695
S'14336'
p696
sS'speed'
p697
S'19200'
p698
sS'disable_flushing'
p699
S'true'
p700
ssS'name'
p701
S'Arduino BT w/ ATmega168'
p702
saa(lp703
S'LilyPadUSB'
p704
a(dp705
S'build'
p706
(dp707
S'core'
p708
S'arduino'
p709
sS'f_cpu'
p710
S'8000000L'
p711
sS'vid'
p712
S'0x1B4F'
p713
sS'pid'
p714
S'0x9208'
p715
sS'variant'
p716
S'leonardo'
p717
sS'mcu'
p718
S'atmega32u4'
p719
ssS'bootloader'
p720
(dp721
S'extended_fuses'
p722
S'0xce'
p723
sS'high_fuses'
p724
S'0xd8'
p725
sS'low_fuses'
p726
S'0xff'
p727
sS'lock_bits'
p728
S'0x2F'
p729
sS'file'
p730
S'Caterina-LilyPadUSB.hex'
p731
sS'path'
p732
S'caterina-LilyPadUSB'
p733
sS'unlock_bits'
p734
S'0x3F'
p735
ssS'upload'
p736
(dp737
S'protocol'
p738
S'avr109'
p739
sS'maximum_size'
p740
S'28672'
p741
sS'speed'
p742
S'57600'
p743
sS'disable_flushing'
p744
S'true'
p745
ssS'name'
p746
S'LilyPad Arduino USB'
p747
saa(lp748
S'lilypad328'
p749
a(dp750
S'build'
p751
(dp752
S'core'
p753
S'arduino'
p754
sS'mcu'
p755
S'atmega328p'
p756
sS'f_cpu'
p757
S'8000000L'
p758
sS'variant'
p759
S'standard'
p760
ssS'bootloader'
p761
(dp762
S'extended_fuses'
p763
S'0x05'
p764
sS'high_fuses'
p765
S'0xDA'
p766
sS'low_fuses'
p767
S'0xFF'
p768
sS'lock_bits'
p769
S'0x0F'
p770
sS'file'
p771
S'ATmegaBOOT_168_atmega328_pro_8MHz.hex'
p772
sS'path'
p773
S'atmega'
p774
sS'unlock_bits'
p775
S'0x3F'
p776
ssS'upload'
p777
(dp778
S'protocol'
p779
S'arduino'
p780
sS'maximum_size'
p781
S'30720'
p782
sS'speed'
p783
S'57600'
p784
ssS'name'
p785
S'LilyPad Arduino w/ ATmega328'
p786
saa(lp787
S'lilypad'
p788
a(dp789
S'build'
p790
(dp791
S'core'
p792
S'arduino'
p793
sS'mcu'
p794
S'atmega168'
p795
sS'f_cpu'
p796
S'8000000L'
p797
sS'variant'
p798
S'standard'
p799
ssS'bootloader'
p800
(dp801
S'extended_fuses'
p802
S'0x00'
p803
sS'high_fuses'
p804
S'0xdd'
p805
sS'low_fuses'
p806
S'0xe2'
p807
sS'lock_bits'
p808
S'0x0F'
p809
sS'file'
p810
S'LilyPadBOOT_168.hex'
p811
sS'path'
p812
S'lilypad'
p813
sS'unlock_bits'
p814
S'0x3F'
p815
ssS'upload'
p816
(dp817
S'protocol'
p818
S'arduino'
p819
sS'maximum_size'
p820
S'14336'
p821
sS'speed'
p822
S'19200'
p823
ssS'name'
p824
S'LilyPad Arduino w/ ATmega168'
p825
saa(lp826
S'pro5v328'
p827
a(dp828
S'build'
p829
(dp830
S'core'
p831
S'arduino'
p832
sS'mcu'
p833
S'atmega328p'
p834
sS'f_cpu'
p835
S'16000000L'
p836
sS'variant'
p837
S'standard'
p838
ssS'bootloader'
p839
(dp840
S'extended_fuses'
p841
S'0x05'
p842
sS'high_fuses'
p843
S'0xDA'
p844
sS'low_fuses'
p845
S'0xFF'
p846
sS'lock_bits'
p847
S'0x0F'
p848
sS'file'
p849
S'ATmegaBOOT_168_atmega328.hex'
p850
sS'path'
p851
S'atmega'
p852
sS'unlock_bits'
p853
S'0x3F'
p854
ssS'upload'
p855
(dp856
S'protocol'
p857
S'arduino'
p858
sS'maximum_size'
p859
S'30720'
p860
sS'speed'
p861
S'57600'
p862
ssS'name'
p863
S'Arduino Pro or Pro Mini (5V, 16 MHz) w/ ATmega328'
p864
saa(lp865
S'pro5v'
p866
a(dp867
S'build'
p868
(dp869
S'core'
p870
S'arduino'
p871
sS'mcu'
p872
S'atmega168'
p873
sS'f_cpu'
p874
S'16000000L'
p875
sS'variant'
p876
S'standard'
p877
ssS'bootloader'
p878
(dp879
S'extended_fuses'
p880
S'0x00'
p881
sS'high_fuses'
p882
S'0xdd'
p883
sS'low_fuses'
p884
S'0xff'
p885
sS'lock_bits'
p886
S'0x0F'
p887
sS'file'
p888
S'ATmegaBOOT_168_diecimila.hex'
p889
sS'path'
p890
S'atmega'
p891
sS'unlock_bits'
p892
S'0x3F'
p893
ssS'upload'
p894
(dp895
S'protocol'
p896
S'arduino'
p897
sS'maximum_size'
p898
S'14336'
p899
sS'speed'
p900
S'19200'
p901
ssS'name'
p902
S'Arduino Pro or Pro Mini (5V, 16 MHz) w/ ATmega168'
p903
saa(lp904
S'pro328'
p905
a(dp906
S'build'
p907
(dp908
S'core'
p909
S'arduino'
p910
sS'mcu'
p911
S'atmega328p'
p912
sS'f_cpu'
p913
S'8000000L'
p914
sS'variant'
p915
S'standard'
p916
ssS'bootloader'
p917
(dp918
S'extended_fuses'
p919
S'0x05'
p920
sS'high_fuses'
p921
S'0xDA'
p922
sS'low_fuses'
p923
S'0xFF'
p924
sS'lock_bits'
p925
S'0x0F'
p926
sS'file'
p927
S'ATmegaBOOT_168_atmega328_pro_8MHz.hex'
p928
sS'path'
p929
S'atmega'
p930
sS'unlock_bits'
p931
S'0x3F'
p932
ssS'upload'
p933
(dp934
S'protocol'
p935
S'arduino'
p936
sS'maximum_size'
p937
S'30720'
p938
sS'speed'
p939
S'57600'
p940
ssS'name'
p941
S'Arduino Pro or Pro Mini (3.3V, 8 MHz) w/ ATmega328'
p942
saa(lp943
S'pro'
p944
a(dp945
S'build'
p946
(dp947
S'core'
p948
S'arduino'
p949
sS'mcu'
p950
S'atmega168'
p951
sS'f_cpu'
p952
S'8000000L'
p953
sS'variant'
p954
S'standard'
p955
ssS'bootloader'
p956
(dp957
S'extended_fuses'
p958
S'0x00'
p959
sS'high_fuses'
p960
S'0xdd'
p961
sS'low_fuses'
p962
S'0xc6'
p963
sS'lock_bits'
p964
S'0x0F'
p965
sS'file'
p966
S'ATmegaBOOT_168_pro_8MHz.hex'
p967
sS'path'
p968
S'atmega'
p969
sS'unlock_bits'
p970
S'0x3F'
p971
ssS'upload'
p972
(dp973
S'protocol'
p974
S'arduino'
p975
sS'maximum_size'
p976
S'14336'
p977
sS'speed'
p978
S'19200'
p979
ssS'name'
p980
S'Arduino Pro or Pro Mini (3.3V, 8 MHz) w/ ATmega168'
p981
saa(lp982
S'atmega168'
p983
a(dp984
S'build'
p985
(dp986
S'core'
p987
S'arduino'
p988
sS'mcu'
p989
S'atmega168'
p990
sS'f_cpu'
p991
S'16000000L'
p992
sS'variant'
p993
S'standard'
p994
ssS'bootloader'
p995
(dp996
S'extended_fuses'
p997
S'0x00'
p998
sS'high_fuses'
p999
S'0xdd'
p1000
sS'low_fuses'
p1001
S'0xff'
p1002
sS'lock_bits'
p1003
S'0x0F'
p1004
sS'file'
p1005
S'ATmegaBOOT_168_ng.hex'
p1006
sS'path'
p1007
S'atmega'
p1008
sS'unlock_bits'
p1009
S'0x3F'
p1010
ssS'upload'
p1011
(dp1012
S'protocol'
p1013
S'arduino'
p1014
sS'maximum_size'
p1015
S'14336'
p1016
sS'speed'
p1017
S'19200'
p1018
ssS'name'
p1019
S'Arduino NG or older w/ ATmega168'
p1020
saa(lp1021
S'atmega8'
p1022
a(dp1023
S'build'
p1024
(dp1025
S'core'
p1026
S'arduino'
p1027
sS'mcu'
p1028
S'atmega8'
p1029
sS'f_cpu'
p1030
S'16000000L'
p1031
sS'variant'
p1032
S'standard'
p1033
ssS'bootloader'
p1034
(dp1035
S'high_fuses'
p1036
S'0xca'
p1037
sS'low_fuses'
p1038
S'0xdf'
p1039
sS'lock_bits'
p1040
S'0x0F'
p1041
sS'file'
p1042
S'ATmegaBOOT-prod-firmware-2009-11-07.hex'
p1043
sS'path'
p1044
S'atmega8'
p1045
sS'unlock_bits'
p1046
S'0x3F'
p1047
ssS'upload'
p1048
(dp1049
S'protocol'
p1050
S'arduino'
p1051
sS'maximum_size'
p1052
S'7168'
p1053
sS'speed'
p1054
S'19200'
p1055
ssS'name'
p1056
S'Arduino NG or older w/ ATmega8'
p1057
saa(lp1058
S'robotControl'
p1059
a(dp1060
S'build'
p1061
(dp1062
S'core'
p1063
S'robot'
p1064
sS'f_cpu'
p1065
S'16000000L'
p1066
sS'vid'
p1067
S'0x2341'
p1068
sS'pid'
p1069
S'0x8038'
p1070
sS'variant'
p1071
S'robot_control'
p1072
sS'mcu'
p1073
S'atmega32u4'
p1074
ssS'bootloader'
p1075
(dp1076
S'extended_fuses'
p1077
S'0xcb'
p1078
sS'high_fuses'
p1079
S'0xd8'
p1080
sS'low_fuses'
p1081
S'0xff'
p1082
sS'lock_bits'
p1083
S'0x2F'
p1084
sS'file'
p1085
S'Caterina-Robot-Control.hex'
p1086
sS'path'
p1087
S'caterina-Arduino_Robot'
p1088
sS'unlock_bits'
p1089
S'0x3F'
p1090
ssS'upload'
p1091
(dp1092
S'protocol'
p1093
S'avr109'
p1094
sS'maximum_size'
p1095
S'28672'
p1096
sS'speed'
p1097
S'57600'
p1098
sS'disable_flushing'
p1099
S'true'
p1100
ssS'name'
p1101
S'Arduino Robot Control'
p1102
saa(lp1103
S'robotMotor'
p1104
a(dp1105
S'build'
p1106
(dp1107
S'core'
p1108
S'robot'
p1109
sS'f_cpu'
p1110
S'16000000L'
p1111
sS'vid'
p1112
S'0x2341'
p1113
sS'pid'
p1114
S'0x8039'
p1115
sS'variant'
p1116
S'robot_motor'
p1117
sS'mcu'
p1118
S'atmega32u4'
p1119
ssS'bootloader'
p1120
(dp1121
S'extended_fuses'
p1122
S'0xcb'
p1123
sS'high_fuses'
p1124
S'0xd8'
p1125
sS'low_fuses'
p1126
S'0xff'
p1127
sS'lock_bits'
p1128
S'0x2F'
p1129
sS'file'
p1130
S'Caterina-Robot-Motor.hex'
p1131
sS'path'
p1132
S'caterina-Arduino_Robot'
p1133
sS'unlock_bits'
p1134
S'0x3F'
p1135
ssS'upload'
p1136
(dp1137
S'protocol'
p1138
S'avr109'
p1139
sS'maximum_size'
p1140
S'28672'
p1141
sS'speed'
p1142
S'57600'
p1143
sS'disable_flushing'
p1144
S'true'
p1145
ssS'name'
p1146
S'Arduino Robot Motor'
p1147
saatp1148
Rp1149
(dp1150
S'default'
p1151
S'uno'
p1152
sbtp1153
a(S'names'
p1154
(dp1155
S'cpp'
p1156
S'%s.cpp'
p1157
sS'obj'
p1158
S'%s.o'
p1159
sS'lib'
p1160
S'lib%s.a'
p1161
sS'deps'
p1162
S'%s.d'
p1163
stp1164
a(g1162
g2
(g3
g4
(lp1165
S'.build/uno/src/dependencies.d'
p1166
aS'.build/uno/2014-2015-Framework/dependencies.d'
p1167
aS'.build/uno/DMCC_Library/dependencies.d'
p1168
atp1169
Rp1170
tp1171
a(S'ldflags'
p1172
g2
(g3
g4
(lp1173
g6
aS'-Wl,-Os'
p1174
aS'-Wl,--gc-sections'
p1175
atp1176
Rp1177
tp1178
a(S'arduino_libraries_dir'
p1179
S'/usr/share/arduino/libraries'
p1180
tp1181
a(S'serial'
p1182
S'/usr/bin/picocom'
p1183
tp1184
a(S'objcopy'
p1185
S'/usr/share/arduino/hardware/tools/avr/bin/avr-objcopy'
p1186
tp1187
a(S'arduino_lib_version'
p1188
g2
(cino.environment
Version
p1189
c__builtin__
tuple
p1190
(I1
I0
I5
tp1191
tp1192
Rp1193
tp1194
a(S'cc'
p1195
S'/usr/share/arduino/hardware/tools/avr/bin/avr-gcc'
p1196
tp1197
a.