(lp0
(S'cppflags'
p1
ccopy_reg
_reconstructor
p2
(cino.utils
SpaceList
p3
c__builtin__
list
p4
(lp5
S'-mmcu=atmega328p'
p6
aS'-DF_CPU=16000000L'
p7
aS'-DARDUINO=105'
p8
aS'-I/usr/share/arduino/hardware/arduino/cores/arduino'
p9
aS'-ffunction-sections'
p10
aS'-fdata-sections'
p11
aS'-g'
p12
aS'-Os'
p13
aS'-w'
p14
aS'-I/usr/share/arduino/hardware/arduino/variants/standard'
p15
atp16
Rp17
tp18
a(S'version.txt'
p19
S'/usr/share/arduino/lib/version.txt'
p20
tp21
a(S'arduino_variants_dir'
p22
S'/usr/share/arduino/hardware/arduino/variants'
p23
tp24
a(S'cc'
p25
S'/usr/share/arduino/hardware/tools/avr/bin/avr-gcc'
p26
tp27
a(S'make'
p28
S'/usr/share/arduino/hardware/tools/avr/bin/make'
p29
tp30
a(S'cflags'
p31
g2
(g3
g4
(lp32
tp33
Rp34
tp35
a(S'build_dir'
p36
S'.build/uno'
p37
tp38
a(S'arduino_core_dir'
p39
S'/usr/share/arduino/hardware/arduino/cores/arduino'
p40
tp41
a(S'boards.txt'
p42
S'/usr/share/arduino/hardware/arduino/boards.txt'
p43
tp44
a(S'cxxflags'
p45
g2
(g3
g4
(lp46
S'-fno-exceptions'
p47
atp48
Rp49
tp50
a(S'cxx'
p51
S'/usr/share/arduino/hardware/tools/avr/bin/avr-g++'
p52
tp53
a(S'ar'
p54
S'/usr/share/arduino/hardware/tools/avr/bin/avr-ar'
p55
tp56
a(S'board_models'
p57
cino.environment
BoardModels
p58
((lp59
(lp60
S'uno'
p61
a(dp62
S'bootloader'
p63
(dp64
S'extended_fuses'
p65
S'0x05'
p66
sS'high_fuses'
p67
S'0xde'
p68
sS'low_fuses'
p69
S'0xff'
p70
sS'lock_bits'
p71
S'0x0F'
p72
sS'file'
p73
S'optiboot_atmega328.hex'
p74
sS'path'
p75
S'optiboot'
p76
sS'unlock_bits'
p77
S'0x3F'
p78
ssS'upload'
p79
(dp80
S'protocol'
p81
S'arduino'
p82
sS'maximum_size'
p83
S'32256'
p84
sS'speed'
p85
S'115200'
p86
ssS'build'
p87
(dp88
S'core'
p89
S'arduino'
p90
sS'mcu'
p91
S'atmega328p'
p92
sS'f_cpu'
p93
S'16000000L'
p94
sS'variant'
p95
S'standard'
p96
ssS'name'
p97
S'Arduino Uno'
p98
saa(lp99
S'atmega328'
p100
a(dp101
S'bootloader'
p102
(dp103
S'extended_fuses'
p104
S'0x05'
p105
sS'high_fuses'
p106
S'0xDA'
p107
sS'low_fuses'
p108
S'0xFF'
p109
sS'lock_bits'
p110
S'0x0F'
p111
sS'file'
p112
S'ATmegaBOOT_168_atmega328.hex'
p113
sS'path'
p114
S'atmega'
p115
sS'unlock_bits'
p116
S'0x3F'
p117
ssS'upload'
p118
(dp119
S'protocol'
p120
S'arduino'
p121
sS'maximum_size'
p122
S'30720'
p123
sS'speed'
p124
S'57600'
p125
ssS'build'
p126
(dp127
S'core'
p128
S'arduino'
p129
sS'mcu'
p130
S'atmega328p'
p131
sS'f_cpu'
p132
S'16000000L'
p133
sS'variant'
p134
S'standard'
p135
ssS'name'
p136
S'Arduino Duemilanove w/ ATmega328'
p137
saa(lp138
S'diecimila'
p139
a(dp140
S'bootloader'
p141
(dp142
S'extended_fuses'
p143
S'0x00'
p144
sS'high_fuses'
p145
S'0xdd'
p146
sS'low_fuses'
p147
S'0xff'
p148
sS'lock_bits'
p149
S'0x0F'
p150
sS'file'
p151
S'ATmegaBOOT_168_diecimila.hex'
p152
sS'path'
p153
S'atmega'
p154
sS'unlock_bits'
p155
S'0x3F'
p156
ssS'upload'
p157
(dp158
S'protocol'
p159
S'arduino'
p160
sS'maximum_size'
p161
S'14336'
p162
sS'speed'
p163
S'19200'
p164
ssS'build'
p165
(dp166
S'core'
p167
S'arduino'
p168
sS'mcu'
p169
S'atmega168'
p170
sS'f_cpu'
p171
S'16000000L'
p172
sS'variant'
p173
S'standard'
p174
ssS'name'
p175
S'Arduino Diecimila or Duemilanove w/ ATmega168'
p176
saa(lp177
S'nano328'
p178
a(dp179
S'bootloader'
p180
(dp181
S'extended_fuses'
p182
S'0x05'
p183
sS'high_fuses'
p184
S'0xDA'
p185
sS'low_fuses'
p186
S'0xFF'
p187
sS'lock_bits'
p188
S'0x0F'
p189
sS'file'
p190
S'ATmegaBOOT_168_atmega328.hex'
p191
sS'path'
p192
S'atmega'
p193
sS'unlock_bits'
p194
S'0x3F'
p195
ssS'upload'
p196
(dp197
S'protocol'
p198
S'arduino'
p199
sS'maximum_size'
p200
S'30720'
p201
sS'speed'
p202
S'57600'
p203
ssS'build'
p204
(dp205
S'core'
p206
S'arduino'
p207
sS'mcu'
p208
S'atmega328p'
p209
sS'f_cpu'
p210
S'16000000L'
p211
sS'variant'
p212
S'eightanaloginputs'
p213
ssS'name'
p214
S'Arduino Nano w/ ATmega328'
p215
saa(lp216
S'nano'
p217
a(dp218
S'bootloader'
p219
(dp220
S'extended_fuses'
p221
S'0x00'
p222
sS'high_fuses'
p223
S'0xdd'
p224
sS'low_fuses'
p225
S'0xff'
p226
sS'lock_bits'
p227
S'0x0F'
p228
sS'file'
p229
S'ATmegaBOOT_168_diecimila.hex'
p230
sS'path'
p231
S'atmega'
p232
sS'unlock_bits'
p233
S'0x3F'
p234
ssS'upload'
p235
(dp236
S'protocol'
p237
S'arduino'
p238
sS'maximum_size'
p239
S'14336'
p240
sS'speed'
p241
S'19200'
p242
ssS'build'
p243
(dp244
S'core'
p245
S'arduino'
p246
sS'mcu'
p247
S'atmega168'
p248
sS'f_cpu'
p249
S'16000000L'
p250
sS'variant'
p251
S'eightanaloginputs'
p252
ssS'name'
p253
S'Arduino Nano w/ ATmega168'
p254
saa(lp255
S'mega2560'
p256
a(dp257
S'bootloader'
p258
(dp259
S'extended_fuses'
p260
S'0xFD'
p261
sS'high_fuses'
p262
S'0xD8'
p263
sS'low_fuses'
p264
S'0xFF'
p265
sS'lock_bits'
p266
S'0x0F'
p267
sS'file'
p268
S'stk500boot_v2_mega2560.hex'
p269
sS'path'
p270
S'stk500v2'
p271
sS'unlock_bits'
p272
S'0x3F'
p273
ssS'upload'
p274
(dp275
S'protocol'
p276
S'wiring'
p277
sS'maximum_size'
p278
S'258048'
p279
sS'speed'
p280
S'115200'
p281
ssS'build'
p282
(dp283
S'core'
p284
S'arduino'
p285
sS'mcu'
p286
S'atmega2560'
p287
sS'f_cpu'
p288
S'16000000L'
p289
sS'variant'
p290
S'mega'
p291
ssS'name'
p292
S'Arduino Mega 2560 or Mega ADK'
p293
saa(lp294
S'mega'
p295
a(dp296
S'bootloader'
p297
(dp298
S'extended_fuses'
p299
S'0xF5'
p300
sS'high_fuses'
p301
S'0xDA'
p302
sS'low_fuses'
p303
S'0xFF'
p304
sS'lock_bits'
p305
S'0x0F'
p306
sS'file'
p307
S'ATmegaBOOT_168_atmega1280.hex'
p308
sS'path'
p309
S'atmega'
p310
sS'unlock_bits'
p311
S'0x3F'
p312
ssS'upload'
p313
(dp314
S'protocol'
p315
S'arduino'
p316
sS'maximum_size'
p317
S'126976'
p318
sS'speed'
p319
S'57600'
p320
ssS'build'
p321
(dp322
S'core'
p323
S'arduino'
p324
sS'mcu'
p325
S'atmega1280'
p326
sS'f_cpu'
p327
S'16000000L'
p328
sS'variant'
p329
S'mega'
p330
ssS'name'
p331
S'Arduino Mega (ATmega1280)'
p332
saa(lp333
S'leonardo'
p334
a(dp335
S'bootloader'
p336
(dp337
S'extended_fuses'
p338
S'0xcb'
p339
sS'high_fuses'
p340
S'0xd8'
p341
sS'low_fuses'
p342
S'0xff'
p343
sS'lock_bits'
p344
S'0x2F'
p345
sS'file'
p346
S'Caterina-Leonardo.hex'
p347
sS'path'
p348
S'caterina'
p349
sS'unlock_bits'
p350
S'0x3F'
p351
ssS'upload'
p352
(dp353
S'protocol'
p354
S'avr109'
p355
sS'maximum_size'
p356
S'28672'
p357
sS'speed'
p358
S'57600'
p359
sS'disable_flushing'
p360
S'true'
p361
ssS'build'
p362
(dp363
S'core'
p364
S'arduino'
p365
sS'f_cpu'
p366
S'16000000L'
p367
sS'vid'
p368
S'0x2341'
p369
sS'pid'
p370
S'0x8036'
p371
sS'variant'
p372
S'leonardo'
p373
sS'mcu'
p374
S'atmega32u4'
p375
ssS'name'
p376
S'Arduino Leonardo'
p377
saa(lp378
S'esplora'
p379
a(dp380
S'bootloader'
p381
(dp382
S'extended_fuses'
p383
S'0xcb'
p384
sS'high_fuses'
p385
S'0xd8'
p386
sS'low_fuses'
p387
S'0xff'
p388
sS'lock_bits'
p389
S'0x2F'
p390
sS'file'
p391
S'Caterina-Esplora.hex'
p392
sS'path'
p393
S'caterina'
p394
sS'unlock_bits'
p395
S'0x3F'
p396
ssS'upload'
p397
(dp398
S'protocol'
p399
S'avr109'
p400
sS'maximum_size'
p401
S'28672'
p402
sS'speed'
p403
S'57600'
p404
sS'disable_flushing'
p405
S'true'
p406
ssS'build'
p407
(dp408
S'core'
p409
S'arduino'
p410
sS'f_cpu'
p411
S'16000000L'
p412
sS'vid'
p413
S'0x2341'
p414
sS'pid'
p415
S'0x803C'
p416
sS'variant'
p417
S'leonardo'
p418
sS'mcu'
p419
S'atmega32u4'
p420
ssS'name'
p421
S'Arduino Esplora'
p422
saa(lp423
S'micro'
p424
a(dp425
S'bootloader'
p426
(dp427
S'extended_fuses'
p428
S'0xcb'
p429
sS'high_fuses'
p430
S'0xd8'
p431
sS'low_fuses'
p432
S'0xff'
p433
sS'lock_bits'
p434
S'0x2F'
p435
sS'file'
p436
S'Caterina-Micro.hex'
p437
sS'path'
p438
S'caterina'
p439
sS'unlock_bits'
p440
S'0x3F'
p441
ssS'upload'
p442
(dp443
S'protocol'
p444
S'avr109'
p445
sS'maximum_size'
p446
S'28672'
p447
sS'speed'
p448
S'57600'
p449
sS'disable_flushing'
p450
S'true'
p451
ssS'build'
p452
(dp453
S'core'
p454
S'arduino'
p455
sS'f_cpu'
p456
S'16000000L'
p457
sS'vid'
p458
S'0x2341'
p459
sS'pid'
p460
S'0x8037'
p461
sS'variant'
p462
S'micro'
p463
sS'mcu'
p464
S'atmega32u4'
p465
ssS'name'
p466
S'Arduino Micro'
p467
saa(lp468
S'mini328'
p469
a(dp470
S'bootloader'
p471
(dp472
S'extended_fuses'
p473
S'0x05'
p474
sS'high_fuses'
p475
S'0xd8'
p476
sS'low_fuses'
p477
S'0xff'
p478
sS'lock_bits'
p479
S'0x0F'
p480
sS'file'
p481
S'optiboot_atmega328-Mini.hex'
p482
sS'path'
p483
S'optiboot'
p484
sS'unlock_bits'
p485
S'0x3F'
p486
ssS'upload'
p487
(dp488
S'protocol'
p489
S'arduino'
p490
sS'maximum_size'
p491
S'28672'
p492
sS'speed'
p493
S'115200'
p494
ssS'build'
p495
(dp496
S'core'
p497
S'arduino'
p498
sS'mcu'
p499
S'atmega328p'
p500
sS'f_cpu'
p501
S'16000000L'
p502
sS'variant'
p503
S'eightanaloginputs'
p504
ssS'name'
p505
S'Arduino Mini w/ ATmega328'
p506
saa(lp507
S'mini'
p508
a(dp509
S'bootloader'
p510
(dp511
S'extended_fuses'
p512
S'0x00'
p513
sS'high_fuses'
p514
S'0xdd'
p515
sS'low_fuses'
p516
S'0xff'
p517
sS'lock_bits'
p518
S'0x0F'
p519
sS'file'
p520
S'ATmegaBOOT_168_ng.hex'
p521
sS'path'
p522
S'atmega'
p523
sS'unlock_bits'
p524
S'0x3F'
p525
ssS'upload'
p526
(dp527
S'protocol'
p528
S'arduino'
p529
sS'maximum_size'
p530
S'14336'
p531
sS'speed'
p532
S'19200'
p533
ssS'build'
p534
(dp535
S'core'
p536
S'arduino'
p537
sS'mcu'
p538
S'atmega168'
p539
sS'f_cpu'
p540
S'16000000L'
p541
sS'variant'
p542
S'eightanaloginputs'
p543
ssS'name'
p544
S'Arduino Mini w/ ATmega168'
p545
saa(lp546
S'ethernet'
p547
a(dp548
S'bootloader'
p549
(dp550
S'extended_fuses'
p551
S'0x05'
p552
sS'high_fuses'
p553
S'0xde'
p554
sS'low_fuses'
p555
S'0xff'
p556
sS'lock_bits'
p557
S'0x0F'
p558
sS'file'
p559
S'optiboot_atmega328.hex'
p560
sS'path'
p561
S'optiboot'
p562
sS'unlock_bits'
p563
S'0x3F'
p564
ssS'upload'
p565
(dp566
S'protocol'
p567
S'arduino'
p568
sS'maximum_size'
p569
S'32256'
p570
sS'speed'
p571
S'115200'
p572
ssS'build'
p573
(dp574
S'variant'
p575
S'standard'
p576
sS'mcu'
p577
S'atmega328p'
p578
sS'f_cpu'
p579
S'16000000L'
p580
sS'core'
p581
S'arduino'
p582
ssS'name'
p583
S'Arduino Ethernet'
p584
saa(lp585
S'fio'
p586
a(dp587
S'bootloader'
p588
(dp589
S'extended_fuses'
p590
S'0x05'
p591
sS'high_fuses'
p592
S'0xDA'
p593
sS'low_fuses'
p594
S'0xFF'
p595
sS'lock_bits'
p596
S'0x0F'
p597
sS'file'
p598
S'ATmegaBOOT_168_atmega328_pro_8MHz.hex'
p599
sS'path'
p600
S'arduino:atmega'
p601
sS'unlock_bits'
p602
S'0x3F'
p603
ssS'upload'
p604
(dp605
S'protocol'
p606
S'arduino'
p607
sS'maximum_size'
p608
S'30720'
p609
sS'speed'
p610
S'57600'
p611
ssS'build'
p612
(dp613
S'core'
p614
S'arduino'
p615
sS'mcu'
p616
S'atmega328p'
p617
sS'f_cpu'
p618
S'8000000L'
p619
sS'variant'
p620
S'eightanaloginputs'
p621
ssS'name'
p622
S'Arduino Fio'
p623
saa(lp624
S'bt328'
p625
a(dp626
S'bootloader'
p627
(dp628
S'extended_fuses'
p629
S'0x05'
p630
sS'high_fuses'
p631
S'0xd8'
p632
sS'low_fuses'
p633
S'0xff'
p634
sS'lock_bits'
p635
S'0x0F'
p636
sS'file'
p637
S'ATmegaBOOT_168_atmega328_bt.hex'
p638
sS'path'
p639
S'bt'
p640
sS'unlock_bits'
p641
S'0x3F'
p642
ssS'upload'
p643
(dp644
S'protocol'
p645
S'arduino'
p646
sS'maximum_size'
p647
S'28672'
p648
sS'speed'
p649
S'19200'
p650
sS'disable_flushing'
p651
S'true'
p652
ssS'build'
p653
(dp654
S'core'
p655
S'arduino'
p656
sS'mcu'
p657
S'atmega328p'
p658
sS'f_cpu'
p659
S'16000000L'
p660
sS'variant'
p661
S'eightanaloginputs'
p662
ssS'name'
p663
S'Arduino BT w/ ATmega328'
p664
saa(lp665
S'bt'
p666
a(dp667
S'bootloader'
p668
(dp669
S'extended_fuses'
p670
S'0x00'
p671
sS'high_fuses'
p672
S'0xdd'
p673
sS'low_fuses'
p674
S'0xff'
p675
sS'lock_bits'
p676
S'0x0F'
p677
sS'file'
p678
S'ATmegaBOOT_168.hex'
p679
sS'path'
p680
S'bt'
p681
sS'unlock_bits'
p682
S'0x3F'
p683
ssS'upload'
p684
(dp685
S'protocol'
p686
S'arduino'
p687
sS'maximum_size'
p688
S'14336'
p689
sS'speed'
p690
S'19200'
p691
sS'disable_flushing'
p692
S'true'
p693
ssS'build'
p694
(dp695
S'core'
p696
S'arduino'
p697
sS'mcu'
p698
S'atmega168'
p699
sS'f_cpu'
p700
S'16000000L'
p701
sS'variant'
p702
S'eightanaloginputs'
p703
ssS'name'
p704
S'Arduino BT w/ ATmega168'
p705
saa(lp706
S'LilyPadUSB'
p707
a(dp708
S'bootloader'
p709
(dp710
S'extended_fuses'
p711
S'0xce'
p712
sS'high_fuses'
p713
S'0xd8'
p714
sS'low_fuses'
p715
S'0xff'
p716
sS'lock_bits'
p717
S'0x2F'
p718
sS'file'
p719
S'Caterina-LilyPadUSB.hex'
p720
sS'path'
p721
S'caterina-LilyPadUSB'
p722
sS'unlock_bits'
p723
S'0x3F'
p724
ssS'upload'
p725
(dp726
S'protocol'
p727
S'avr109'
p728
sS'maximum_size'
p729
S'28672'
p730
sS'speed'
p731
S'57600'
p732
sS'disable_flushing'
p733
S'true'
p734
ssS'build'
p735
(dp736
S'core'
p737
S'arduino'
p738
sS'f_cpu'
p739
S'8000000L'
p740
sS'vid'
p741
S'0x1B4F'
p742
sS'pid'
p743
S'0x9208'
p744
sS'variant'
p745
S'leonardo'
p746
sS'mcu'
p747
S'atmega32u4'
p748
ssS'name'
p749
S'LilyPad Arduino USB'
p750
saa(lp751
S'lilypad328'
p752
a(dp753
S'bootloader'
p754
(dp755
S'extended_fuses'
p756
S'0x05'
p757
sS'high_fuses'
p758
S'0xDA'
p759
sS'low_fuses'
p760
S'0xFF'
p761
sS'lock_bits'
p762
S'0x0F'
p763
sS'file'
p764
S'ATmegaBOOT_168_atmega328_pro_8MHz.hex'
p765
sS'path'
p766
S'atmega'
p767
sS'unlock_bits'
p768
S'0x3F'
p769
ssS'upload'
p770
(dp771
S'protocol'
p772
S'arduino'
p773
sS'maximum_size'
p774
S'30720'
p775
sS'speed'
p776
S'57600'
p777
ssS'build'
p778
(dp779
S'core'
p780
S'arduino'
p781
sS'mcu'
p782
S'atmega328p'
p783
sS'f_cpu'
p784
S'8000000L'
p785
sS'variant'
p786
S'standard'
p787
ssS'name'
p788
S'LilyPad Arduino w/ ATmega328'
p789
saa(lp790
S'lilypad'
p791
a(dp792
S'bootloader'
p793
(dp794
S'extended_fuses'
p795
S'0x00'
p796
sS'high_fuses'
p797
S'0xdd'
p798
sS'low_fuses'
p799
S'0xe2'
p800
sS'lock_bits'
p801
S'0x0F'
p802
sS'file'
p803
S'LilyPadBOOT_168.hex'
p804
sS'path'
p805
S'lilypad'
p806
sS'unlock_bits'
p807
S'0x3F'
p808
ssS'upload'
p809
(dp810
S'protocol'
p811
S'arduino'
p812
sS'maximum_size'
p813
S'14336'
p814
sS'speed'
p815
S'19200'
p816
ssS'build'
p817
(dp818
S'core'
p819
S'arduino'
p820
sS'mcu'
p821
S'atmega168'
p822
sS'f_cpu'
p823
S'8000000L'
p824
sS'variant'
p825
S'standard'
p826
ssS'name'
p827
S'LilyPad Arduino w/ ATmega168'
p828
saa(lp829
S'pro5v328'
p830
a(dp831
S'bootloader'
p832
(dp833
S'extended_fuses'
p834
S'0x05'
p835
sS'high_fuses'
p836
S'0xDA'
p837
sS'low_fuses'
p838
S'0xFF'
p839
sS'lock_bits'
p840
S'0x0F'
p841
sS'file'
p842
S'ATmegaBOOT_168_atmega328.hex'
p843
sS'path'
p844
S'atmega'
p845
sS'unlock_bits'
p846
S'0x3F'
p847
ssS'upload'
p848
(dp849
S'protocol'
p850
S'arduino'
p851
sS'maximum_size'
p852
S'30720'
p853
sS'speed'
p854
S'57600'
p855
ssS'build'
p856
(dp857
S'core'
p858
S'arduino'
p859
sS'mcu'
p860
S'atmega328p'
p861
sS'f_cpu'
p862
S'16000000L'
p863
sS'variant'
p864
S'standard'
p865
ssS'name'
p866
S'Arduino Pro or Pro Mini (5V, 16 MHz) w/ ATmega328'
p867
saa(lp868
S'pro5v'
p869
a(dp870
S'bootloader'
p871
(dp872
S'extended_fuses'
p873
S'0x00'
p874
sS'high_fuses'
p875
S'0xdd'
p876
sS'low_fuses'
p877
S'0xff'
p878
sS'lock_bits'
p879
S'0x0F'
p880
sS'file'
p881
S'ATmegaBOOT_168_diecimila.hex'
p882
sS'path'
p883
S'atmega'
p884
sS'unlock_bits'
p885
S'0x3F'
p886
ssS'upload'
p887
(dp888
S'protocol'
p889
S'arduino'
p890
sS'maximum_size'
p891
S'14336'
p892
sS'speed'
p893
S'19200'
p894
ssS'build'
p895
(dp896
S'core'
p897
S'arduino'
p898
sS'mcu'
p899
S'atmega168'
p900
sS'f_cpu'
p901
S'16000000L'
p902
sS'variant'
p903
S'standard'
p904
ssS'name'
p905
S'Arduino Pro or Pro Mini (5V, 16 MHz) w/ ATmega168'
p906
saa(lp907
S'pro328'
p908
a(dp909
S'bootloader'
p910
(dp911
S'extended_fuses'
p912
S'0x05'
p913
sS'high_fuses'
p914
S'0xDA'
p915
sS'low_fuses'
p916
S'0xFF'
p917
sS'lock_bits'
p918
S'0x0F'
p919
sS'file'
p920
S'ATmegaBOOT_168_atmega328_pro_8MHz.hex'
p921
sS'path'
p922
S'atmega'
p923
sS'unlock_bits'
p924
S'0x3F'
p925
ssS'upload'
p926
(dp927
S'protocol'
p928
S'arduino'
p929
sS'maximum_size'
p930
S'30720'
p931
sS'speed'
p932
S'57600'
p933
ssS'build'
p934
(dp935
S'core'
p936
S'arduino'
p937
sS'mcu'
p938
S'atmega328p'
p939
sS'f_cpu'
p940
S'8000000L'
p941
sS'variant'
p942
S'standard'
p943
ssS'name'
p944
S'Arduino Pro or Pro Mini (3.3V, 8 MHz) w/ ATmega328'
p945
saa(lp946
S'pro'
p947
a(dp948
S'bootloader'
p949
(dp950
S'extended_fuses'
p951
S'0x00'
p952
sS'high_fuses'
p953
S'0xdd'
p954
sS'low_fuses'
p955
S'0xc6'
p956
sS'lock_bits'
p957
S'0x0F'
p958
sS'file'
p959
S'ATmegaBOOT_168_pro_8MHz.hex'
p960
sS'path'
p961
S'atmega'
p962
sS'unlock_bits'
p963
S'0x3F'
p964
ssS'upload'
p965
(dp966
S'protocol'
p967
S'arduino'
p968
sS'maximum_size'
p969
S'14336'
p970
sS'speed'
p971
S'19200'
p972
ssS'build'
p973
(dp974
S'core'
p975
S'arduino'
p976
sS'mcu'
p977
S'atmega168'
p978
sS'f_cpu'
p979
S'8000000L'
p980
sS'variant'
p981
S'standard'
p982
ssS'name'
p983
S'Arduino Pro or Pro Mini (3.3V, 8 MHz) w/ ATmega168'
p984
saa(lp985
S'atmega168'
p986
a(dp987
S'bootloader'
p988
(dp989
S'extended_fuses'
p990
S'0x00'
p991
sS'high_fuses'
p992
S'0xdd'
p993
sS'low_fuses'
p994
S'0xff'
p995
sS'lock_bits'
p996
S'0x0F'
p997
sS'file'
p998
S'ATmegaBOOT_168_ng.hex'
p999
sS'path'
p1000
S'atmega'
p1001
sS'unlock_bits'
p1002
S'0x3F'
p1003
ssS'upload'
p1004
(dp1005
S'protocol'
p1006
S'arduino'
p1007
sS'maximum_size'
p1008
S'14336'
p1009
sS'speed'
p1010
S'19200'
p1011
ssS'build'
p1012
(dp1013
S'core'
p1014
S'arduino'
p1015
sS'mcu'
p1016
S'atmega168'
p1017
sS'f_cpu'
p1018
S'16000000L'
p1019
sS'variant'
p1020
S'standard'
p1021
ssS'name'
p1022
S'Arduino NG or older w/ ATmega168'
p1023
saa(lp1024
S'atmega8'
p1025
a(dp1026
S'bootloader'
p1027
(dp1028
S'high_fuses'
p1029
S'0xca'
p1030
sS'low_fuses'
p1031
S'0xdf'
p1032
sS'lock_bits'
p1033
S'0x0F'
p1034
sS'file'
p1035
S'ATmegaBOOT-prod-firmware-2009-11-07.hex'
p1036
sS'path'
p1037
S'atmega8'
p1038
sS'unlock_bits'
p1039
S'0x3F'
p1040
ssS'upload'
p1041
(dp1042
S'protocol'
p1043
S'arduino'
p1044
sS'maximum_size'
p1045
S'7168'
p1046
sS'speed'
p1047
S'19200'
p1048
ssS'build'
p1049
(dp1050
S'core'
p1051
S'arduino'
p1052
sS'mcu'
p1053
S'atmega8'
p1054
sS'f_cpu'
p1055
S'16000000L'
p1056
sS'variant'
p1057
S'standard'
p1058
ssS'name'
p1059
S'Arduino NG or older w/ ATmega8'
p1060
saa(lp1061
S'robotControl'
p1062
a(dp1063
S'bootloader'
p1064
(dp1065
S'extended_fuses'
p1066
S'0xcb'
p1067
sS'high_fuses'
p1068
S'0xd8'
p1069
sS'low_fuses'
p1070
S'0xff'
p1071
sS'lock_bits'
p1072
S'0x2F'
p1073
sS'file'
p1074
S'Caterina-Robot-Control.hex'
p1075
sS'path'
p1076
S'caterina-Arduino_Robot'
p1077
sS'unlock_bits'
p1078
S'0x3F'
p1079
ssS'upload'
p1080
(dp1081
S'protocol'
p1082
S'avr109'
p1083
sS'maximum_size'
p1084
S'28672'
p1085
sS'speed'
p1086
S'57600'
p1087
sS'disable_flushing'
p1088
S'true'
p1089
ssS'build'
p1090
(dp1091
S'core'
p1092
S'robot'
p1093
sS'f_cpu'
p1094
S'16000000L'
p1095
sS'vid'
p1096
S'0x2341'
p1097
sS'pid'
p1098
S'0x8038'
p1099
sS'variant'
p1100
S'robot_control'
p1101
sS'mcu'
p1102
S'atmega32u4'
p1103
ssS'name'
p1104
S'Arduino Robot Control'
p1105
saa(lp1106
S'robotMotor'
p1107
a(dp1108
S'bootloader'
p1109
(dp1110
S'extended_fuses'
p1111
S'0xcb'
p1112
sS'high_fuses'
p1113
S'0xd8'
p1114
sS'low_fuses'
p1115
S'0xff'
p1116
sS'lock_bits'
p1117
S'0x2F'
p1118
sS'file'
p1119
S'Caterina-Robot-Motor.hex'
p1120
sS'path'
p1121
S'caterina-Arduino_Robot'
p1122
sS'unlock_bits'
p1123
S'0x3F'
p1124
ssS'upload'
p1125
(dp1126
S'protocol'
p1127
S'avr109'
p1128
sS'maximum_size'
p1129
S'28672'
p1130
sS'speed'
p1131
S'57600'
p1132
sS'disable_flushing'
p1133
S'true'
p1134
ssS'build'
p1135
(dp1136
S'core'
p1137
S'robot'
p1138
sS'f_cpu'
p1139
S'16000000L'
p1140
sS'vid'
p1141
S'0x2341'
p1142
sS'pid'
p1143
S'0x8039'
p1144
sS'variant'
p1145
S'robot_motor'
p1146
sS'mcu'
p1147
S'atmega32u4'
p1148
ssS'name'
p1149
S'Arduino Robot Motor'
p1150
saatp1151
Rp1152
(dp1153
S'default'
p1154
S'uno'
p1155
sbtp1156
a(S'names'
p1157
(dp1158
S'cpp'
p1159
S'%s.cpp'
p1160
sS'obj'
p1161
S'%s.o'
p1162
sS'lib'
p1163
S'lib%s.a'
p1164
sS'deps'
p1165
S'%s.d'
p1166
stp1167
a(g1165
g2
(g3
g4
(lp1168
S'.build/uno/src/dependencies.d'
p1169
aS'.build/uno/2014-2015-Framework/dependencies.d'
p1170
aS'.build/uno/DMCC_Library/dependencies.d'
p1171
atp1172
Rp1173
tp1174
a(S'arduino_libraries_dir'
p1175
S'/usr/share/arduino/libraries'
p1176
tp1177
a(S'arduino_lib_version'
p1178
g2
(cino.environment
Version
p1179
c__builtin__
tuple
p1180
(I1
I0
I5
tp1181
tp1182
Rp1183
tp1184
a(S'objcopy'
p1185
S'/usr/share/arduino/hardware/tools/avr/bin/avr-objcopy'
p1186
tp1187
a(S'serial'
p1188
S'/usr/bin/picocom'
p1189
tp1190
a(S'ldflags'
p1191
g2
(g3
g4
(lp1192
g6
aS'-Wl,-Os'
p1193
aS'-Wl,--gc-sections'
p1194
atp1195
Rp1196
tp1197
a.