(lp0
(S'cppflags'
p1
ccopy_reg
_reconstructor
p2
(cino.utils
SpaceList
p3
c__builtin__
list
p4
(lp5
S'-mmcu=atmega328p'
p6
aS'-DF_CPU=16000000L'
p7
aS'-DARDUINO=105'
p8
aS'-I/usr/share/arduino/hardware/arduino/cores/arduino'
p9
aS'-ffunction-sections'
p10
aS'-fdata-sections'
p11
aS'-g'
p12
aS'-Os'
p13
aS'-w'
p14
aS'-I/usr/share/arduino/hardware/arduino/variants/standard'
p15
atp16
Rp17
tp18
a(S'version.txt'
p19
S'/usr/share/arduino/lib/version.txt'
p20
tp21
a(S'cc'
p22
S'/usr/share/arduino/hardware/tools/avr/bin/avr-gcc'
p23
tp24
a(S'make'
p25
S'/usr/share/arduino/hardware/tools/avr/bin/make'
p26
tp27
a(S'build_dir'
p28
S'.build/uno'
p29
tp30
a(S'arduino_core_dir'
p31
S'/usr/share/arduino/hardware/arduino/cores/arduino'
p32
tp33
a(S'boards.txt'
p34
S'/usr/share/arduino/hardware/arduino/boards.txt'
p35
tp36
a(S'cxxflags'
p37
g2
(g3
g4
(lp38
S'-fno-exceptions'
p39
atp40
Rp41
tp42
a(S'arduino_variants_dir'
p43
S'/usr/share/arduino/hardware/arduino/variants'
p44
tp45
a(S'deps'
p46
g2
(g3
g4
(lp47
S'.build/uno/src/dependencies.d'
p48
aS'.build/uno/2014-2015-Framework/dependencies.d'
p49
aS'.build/uno/DMCC_Library/dependencies.d'
p50
atp51
Rp52
tp53
a(S'ar'
p54
S'/usr/share/arduino/hardware/tools/avr/bin/avr-ar'
p55
tp56
a(S'names'
p57
(dp58
S'cpp'
p59
S'%s.cpp'
p60
sS'obj'
p61
S'%s.o'
p62
sg46
S'%s.d'
p63
sS'lib'
p64
S'lib%s.a'
p65
stp66
a(S'cflags'
p67
g2
(g3
g4
(lp68
tp69
Rp70
tp71
a(S'ldflags'
p72
g2
(g3
g4
(lp73
g6
aS'-Wl,-Os'
p74
aS'-Wl,--gc-sections'
p75
atp76
Rp77
tp78
a(S'arduino_libraries_dir'
p79
S'/usr/share/arduino/libraries'
p80
tp81
a(S'arduino_lib_version'
p82
g2
(cino.environment
Version
p83
c__builtin__
tuple
p84
(I1
I0
I5
tp85
tp86
Rp87
tp88
a(S'objcopy'
p89
S'/usr/share/arduino/hardware/tools/avr/bin/avr-objcopy'
p90
tp91
a(S'board_models'
p92
cino.environment
BoardModels
p93
((lp94
(lp95
S'uno'
p96
a(dp97
S'build'
p98
(dp99
S'core'
p100
S'arduino'
p101
sS'mcu'
p102
S'atmega328p'
p103
sS'f_cpu'
p104
S'16000000L'
p105
sS'variant'
p106
S'standard'
p107
ssS'bootloader'
p108
(dp109
S'extended_fuses'
p110
S'0x05'
p111
sS'high_fuses'
p112
S'0xde'
p113
sS'low_fuses'
p114
S'0xff'
p115
sS'lock_bits'
p116
S'0x0F'
p117
sS'file'
p118
S'optiboot_atmega328.hex'
p119
sS'path'
p120
S'optiboot'
p121
sS'unlock_bits'
p122
S'0x3F'
p123
ssS'name'
p124
S'Arduino Uno'
p125
sS'upload'
p126
(dp127
S'speed'
p128
S'115200'
p129
sS'maximum_size'
p130
S'32256'
p131
sS'protocol'
p132
S'arduino'
p133
ssaa(lp134
S'atmega328'
p135
a(dp136
S'build'
p137
(dp138
S'core'
p139
S'arduino'
p140
sS'mcu'
p141
S'atmega328p'
p142
sS'f_cpu'
p143
S'16000000L'
p144
sS'variant'
p145
S'standard'
p146
ssS'bootloader'
p147
(dp148
S'extended_fuses'
p149
S'0x05'
p150
sS'high_fuses'
p151
S'0xDA'
p152
sS'low_fuses'
p153
S'0xFF'
p154
sS'lock_bits'
p155
S'0x0F'
p156
sS'file'
p157
S'ATmegaBOOT_168_atmega328.hex'
p158
sS'path'
p159
S'atmega'
p160
sS'unlock_bits'
p161
S'0x3F'
p162
ssS'name'
p163
S'Arduino Duemilanove w/ ATmega328'
p164
sS'upload'
p165
(dp166
S'speed'
p167
S'57600'
p168
sS'maximum_size'
p169
S'30720'
p170
sS'protocol'
p171
S'arduino'
p172
ssaa(lp173
S'diecimila'
p174
a(dp175
S'build'
p176
(dp177
S'core'
p178
S'arduino'
p179
sS'mcu'
p180
S'atmega168'
p181
sS'f_cpu'
p182
S'16000000L'
p183
sS'variant'
p184
S'standard'
p185
ssS'bootloader'
p186
(dp187
S'extended_fuses'
p188
S'0x00'
p189
sS'high_fuses'
p190
S'0xdd'
p191
sS'low_fuses'
p192
S'0xff'
p193
sS'lock_bits'
p194
S'0x0F'
p195
sS'file'
p196
S'ATmegaBOOT_168_diecimila.hex'
p197
sS'path'
p198
S'atmega'
p199
sS'unlock_bits'
p200
S'0x3F'
p201
ssS'name'
p202
S'Arduino Diecimila or Duemilanove w/ ATmega168'
p203
sS'upload'
p204
(dp205
S'speed'
p206
S'19200'
p207
sS'maximum_size'
p208
S'14336'
p209
sS'protocol'
p210
S'arduino'
p211
ssaa(lp212
S'nano328'
p213
a(dp214
S'build'
p215
(dp216
S'core'
p217
S'arduino'
p218
sS'mcu'
p219
S'atmega328p'
p220
sS'f_cpu'
p221
S'16000000L'
p222
sS'variant'
p223
S'eightanaloginputs'
p224
ssS'bootloader'
p225
(dp226
S'extended_fuses'
p227
S'0x05'
p228
sS'high_fuses'
p229
S'0xDA'
p230
sS'low_fuses'
p231
S'0xFF'
p232
sS'lock_bits'
p233
S'0x0F'
p234
sS'file'
p235
S'ATmegaBOOT_168_atmega328.hex'
p236
sS'path'
p237
S'atmega'
p238
sS'unlock_bits'
p239
S'0x3F'
p240
ssS'name'
p241
S'Arduino Nano w/ ATmega328'
p242
sS'upload'
p243
(dp244
S'speed'
p245
S'57600'
p246
sS'maximum_size'
p247
S'30720'
p248
sS'protocol'
p249
S'arduino'
p250
ssaa(lp251
S'nano'
p252
a(dp253
S'build'
p254
(dp255
S'core'
p256
S'arduino'
p257
sS'mcu'
p258
S'atmega168'
p259
sS'f_cpu'
p260
S'16000000L'
p261
sS'variant'
p262
S'eightanaloginputs'
p263
ssS'bootloader'
p264
(dp265
S'extended_fuses'
p266
S'0x00'
p267
sS'high_fuses'
p268
S'0xdd'
p269
sS'low_fuses'
p270
S'0xff'
p271
sS'lock_bits'
p272
S'0x0F'
p273
sS'file'
p274
S'ATmegaBOOT_168_diecimila.hex'
p275
sS'path'
p276
S'atmega'
p277
sS'unlock_bits'
p278
S'0x3F'
p279
ssS'name'
p280
S'Arduino Nano w/ ATmega168'
p281
sS'upload'
p282
(dp283
S'speed'
p284
S'19200'
p285
sS'maximum_size'
p286
S'14336'
p287
sS'protocol'
p288
S'arduino'
p289
ssaa(lp290
S'mega2560'
p291
a(dp292
S'build'
p293
(dp294
S'core'
p295
S'arduino'
p296
sS'mcu'
p297
S'atmega2560'
p298
sS'f_cpu'
p299
S'16000000L'
p300
sS'variant'
p301
S'mega'
p302
ssS'bootloader'
p303
(dp304
S'extended_fuses'
p305
S'0xFD'
p306
sS'high_fuses'
p307
S'0xD8'
p308
sS'low_fuses'
p309
S'0xFF'
p310
sS'lock_bits'
p311
S'0x0F'
p312
sS'file'
p313
S'stk500boot_v2_mega2560.hex'
p314
sS'path'
p315
S'stk500v2'
p316
sS'unlock_bits'
p317
S'0x3F'
p318
ssS'name'
p319
S'Arduino Mega 2560 or Mega ADK'
p320
sS'upload'
p321
(dp322
S'speed'
p323
S'115200'
p324
sS'maximum_size'
p325
S'258048'
p326
sS'protocol'
p327
S'wiring'
p328
ssaa(lp329
S'mega'
p330
a(dp331
S'build'
p332
(dp333
S'core'
p334
S'arduino'
p335
sS'mcu'
p336
S'atmega1280'
p337
sS'f_cpu'
p338
S'16000000L'
p339
sS'variant'
p340
S'mega'
p341
ssS'bootloader'
p342
(dp343
S'extended_fuses'
p344
S'0xF5'
p345
sS'high_fuses'
p346
S'0xDA'
p347
sS'low_fuses'
p348
S'0xFF'
p349
sS'lock_bits'
p350
S'0x0F'
p351
sS'file'
p352
S'ATmegaBOOT_168_atmega1280.hex'
p353
sS'path'
p354
S'atmega'
p355
sS'unlock_bits'
p356
S'0x3F'
p357
ssS'name'
p358
S'Arduino Mega (ATmega1280)'
p359
sS'upload'
p360
(dp361
S'speed'
p362
S'57600'
p363
sS'maximum_size'
p364
S'126976'
p365
sS'protocol'
p366
S'arduino'
p367
ssaa(lp368
S'leonardo'
p369
a(dp370
S'build'
p371
(dp372
S'core'
p373
S'arduino'
p374
sS'f_cpu'
p375
S'16000000L'
p376
sS'vid'
p377
S'0x2341'
p378
sS'pid'
p379
S'0x8036'
p380
sS'variant'
p381
S'leonardo'
p382
sS'mcu'
p383
S'atmega32u4'
p384
ssS'bootloader'
p385
(dp386
S'extended_fuses'
p387
S'0xcb'
p388
sS'high_fuses'
p389
S'0xd8'
p390
sS'low_fuses'
p391
S'0xff'
p392
sS'lock_bits'
p393
S'0x2F'
p394
sS'file'
p395
S'Caterina-Leonardo.hex'
p396
sS'path'
p397
S'caterina'
p398
sS'unlock_bits'
p399
S'0x3F'
p400
ssS'name'
p401
S'Arduino Leonardo'
p402
sS'upload'
p403
(dp404
S'speed'
p405
S'57600'
p406
sS'maximum_size'
p407
S'28672'
p408
sS'protocol'
p409
S'avr109'
p410
sS'disable_flushing'
p411
S'true'
p412
ssaa(lp413
S'esplora'
p414
a(dp415
S'build'
p416
(dp417
S'core'
p418
S'arduino'
p419
sS'f_cpu'
p420
S'16000000L'
p421
sS'vid'
p422
S'0x2341'
p423
sS'pid'
p424
S'0x803C'
p425
sS'variant'
p426
S'leonardo'
p427
sS'mcu'
p428
S'atmega32u4'
p429
ssS'bootloader'
p430
(dp431
S'extended_fuses'
p432
S'0xcb'
p433
sS'high_fuses'
p434
S'0xd8'
p435
sS'low_fuses'
p436
S'0xff'
p437
sS'lock_bits'
p438
S'0x2F'
p439
sS'file'
p440
S'Caterina-Esplora.hex'
p441
sS'path'
p442
S'caterina'
p443
sS'unlock_bits'
p444
S'0x3F'
p445
ssS'name'
p446
S'Arduino Esplora'
p447
sS'upload'
p448
(dp449
S'speed'
p450
S'57600'
p451
sS'maximum_size'
p452
S'28672'
p453
sS'protocol'
p454
S'avr109'
p455
sS'disable_flushing'
p456
S'true'
p457
ssaa(lp458
S'micro'
p459
a(dp460
S'build'
p461
(dp462
S'core'
p463
S'arduino'
p464
sS'f_cpu'
p465
S'16000000L'
p466
sS'vid'
p467
S'0x2341'
p468
sS'pid'
p469
S'0x8037'
p470
sS'variant'
p471
S'micro'
p472
sS'mcu'
p473
S'atmega32u4'
p474
ssS'bootloader'
p475
(dp476
S'extended_fuses'
p477
S'0xcb'
p478
sS'high_fuses'
p479
S'0xd8'
p480
sS'low_fuses'
p481
S'0xff'
p482
sS'lock_bits'
p483
S'0x2F'
p484
sS'file'
p485
S'Caterina-Micro.hex'
p486
sS'path'
p487
S'caterina'
p488
sS'unlock_bits'
p489
S'0x3F'
p490
ssS'name'
p491
S'Arduino Micro'
p492
sS'upload'
p493
(dp494
S'speed'
p495
S'57600'
p496
sS'maximum_size'
p497
S'28672'
p498
sS'protocol'
p499
S'avr109'
p500
sS'disable_flushing'
p501
S'true'
p502
ssaa(lp503
S'mini328'
p504
a(dp505
S'build'
p506
(dp507
S'core'
p508
S'arduino'
p509
sS'mcu'
p510
S'atmega328p'
p511
sS'f_cpu'
p512
S'16000000L'
p513
sS'variant'
p514
S'eightanaloginputs'
p515
ssS'bootloader'
p516
(dp517
S'extended_fuses'
p518
S'0x05'
p519
sS'high_fuses'
p520
S'0xd8'
p521
sS'low_fuses'
p522
S'0xff'
p523
sS'lock_bits'
p524
S'0x0F'
p525
sS'file'
p526
S'optiboot_atmega328-Mini.hex'
p527
sS'path'
p528
S'optiboot'
p529
sS'unlock_bits'
p530
S'0x3F'
p531
ssS'name'
p532
S'Arduino Mini w/ ATmega328'
p533
sS'upload'
p534
(dp535
S'speed'
p536
S'115200'
p537
sS'maximum_size'
p538
S'28672'
p539
sS'protocol'
p540
S'arduino'
p541
ssaa(lp542
S'mini'
p543
a(dp544
S'build'
p545
(dp546
S'core'
p547
S'arduino'
p548
sS'mcu'
p549
S'atmega168'
p550
sS'f_cpu'
p551
S'16000000L'
p552
sS'variant'
p553
S'eightanaloginputs'
p554
ssS'bootloader'
p555
(dp556
S'extended_fuses'
p557
S'0x00'
p558
sS'high_fuses'
p559
S'0xdd'
p560
sS'low_fuses'
p561
S'0xff'
p562
sS'lock_bits'
p563
S'0x0F'
p564
sS'file'
p565
S'ATmegaBOOT_168_ng.hex'
p566
sS'path'
p567
S'atmega'
p568
sS'unlock_bits'
p569
S'0x3F'
p570
ssS'name'
p571
S'Arduino Mini w/ ATmega168'
p572
sS'upload'
p573
(dp574
S'speed'
p575
S'19200'
p576
sS'maximum_size'
p577
S'14336'
p578
sS'protocol'
p579
S'arduino'
p580
ssaa(lp581
S'ethernet'
p582
a(dp583
S'build'
p584
(dp585
S'f_cpu'
p586
S'16000000L'
p587
sS'mcu'
p588
S'atmega328p'
p589
sS'variant'
p590
S'standard'
p591
sS'core'
p592
S'arduino'
p593
ssS'bootloader'
p594
(dp595
S'extended_fuses'
p596
S'0x05'
p597
sS'high_fuses'
p598
S'0xde'
p599
sS'low_fuses'
p600
S'0xff'
p601
sS'lock_bits'
p602
S'0x0F'
p603
sS'file'
p604
S'optiboot_atmega328.hex'
p605
sS'path'
p606
S'optiboot'
p607
sS'unlock_bits'
p608
S'0x3F'
p609
ssS'name'
p610
S'Arduino Ethernet'
p611
sS'upload'
p612
(dp613
S'speed'
p614
S'115200'
p615
sS'maximum_size'
p616
S'32256'
p617
sS'protocol'
p618
S'arduino'
p619
ssaa(lp620
S'fio'
p621
a(dp622
S'build'
p623
(dp624
S'core'
p625
S'arduino'
p626
sS'mcu'
p627
S'atmega328p'
p628
sS'f_cpu'
p629
S'8000000L'
p630
sS'variant'
p631
S'eightanaloginputs'
p632
ssS'bootloader'
p633
(dp634
S'extended_fuses'
p635
S'0x05'
p636
sS'high_fuses'
p637
S'0xDA'
p638
sS'low_fuses'
p639
S'0xFF'
p640
sS'lock_bits'
p641
S'0x0F'
p642
sS'file'
p643
S'ATmegaBOOT_168_atmega328_pro_8MHz.hex'
p644
sS'path'
p645
S'arduino:atmega'
p646
sS'unlock_bits'
p647
S'0x3F'
p648
ssS'name'
p649
S'Arduino Fio'
p650
sS'upload'
p651
(dp652
S'speed'
p653
S'57600'
p654
sS'maximum_size'
p655
S'30720'
p656
sS'protocol'
p657
S'arduino'
p658
ssaa(lp659
S'bt328'
p660
a(dp661
S'build'
p662
(dp663
S'core'
p664
S'arduino'
p665
sS'mcu'
p666
S'atmega328p'
p667
sS'f_cpu'
p668
S'16000000L'
p669
sS'variant'
p670
S'eightanaloginputs'
p671
ssS'bootloader'
p672
(dp673
S'extended_fuses'
p674
S'0x05'
p675
sS'high_fuses'
p676
S'0xd8'
p677
sS'low_fuses'
p678
S'0xff'
p679
sS'lock_bits'
p680
S'0x0F'
p681
sS'file'
p682
S'ATmegaBOOT_168_atmega328_bt.hex'
p683
sS'path'
p684
S'bt'
p685
sS'unlock_bits'
p686
S'0x3F'
p687
ssS'name'
p688
S'Arduino BT w/ ATmega328'
p689
sS'upload'
p690
(dp691
S'speed'
p692
S'19200'
p693
sS'maximum_size'
p694
S'28672'
p695
sS'protocol'
p696
S'arduino'
p697
sS'disable_flushing'
p698
S'true'
p699
ssaa(lp700
S'bt'
p701
a(dp702
S'build'
p703
(dp704
S'core'
p705
S'arduino'
p706
sS'mcu'
p707
S'atmega168'
p708
sS'f_cpu'
p709
S'16000000L'
p710
sS'variant'
p711
S'eightanaloginputs'
p712
ssS'bootloader'
p713
(dp714
S'extended_fuses'
p715
S'0x00'
p716
sS'high_fuses'
p717
S'0xdd'
p718
sS'low_fuses'
p719
S'0xff'
p720
sS'lock_bits'
p721
S'0x0F'
p722
sS'file'
p723
S'ATmegaBOOT_168.hex'
p724
sS'path'
p725
S'bt'
p726
sS'unlock_bits'
p727
S'0x3F'
p728
ssS'name'
p729
S'Arduino BT w/ ATmega168'
p730
sS'upload'
p731
(dp732
S'speed'
p733
S'19200'
p734
sS'maximum_size'
p735
S'14336'
p736
sS'protocol'
p737
S'arduino'
p738
sS'disable_flushing'
p739
S'true'
p740
ssaa(lp741
S'LilyPadUSB'
p742
a(dp743
S'build'
p744
(dp745
S'core'
p746
S'arduino'
p747
sS'f_cpu'
p748
S'8000000L'
p749
sS'vid'
p750
S'0x1B4F'
p751
sS'pid'
p752
S'0x9208'
p753
sS'variant'
p754
S'leonardo'
p755
sS'mcu'
p756
S'atmega32u4'
p757
ssS'bootloader'
p758
(dp759
S'extended_fuses'
p760
S'0xce'
p761
sS'high_fuses'
p762
S'0xd8'
p763
sS'low_fuses'
p764
S'0xff'
p765
sS'lock_bits'
p766
S'0x2F'
p767
sS'file'
p768
S'Caterina-LilyPadUSB.hex'
p769
sS'path'
p770
S'caterina-LilyPadUSB'
p771
sS'unlock_bits'
p772
S'0x3F'
p773
ssS'name'
p774
S'LilyPad Arduino USB'
p775
sS'upload'
p776
(dp777
S'speed'
p778
S'57600'
p779
sS'maximum_size'
p780
S'28672'
p781
sS'protocol'
p782
S'avr109'
p783
sS'disable_flushing'
p784
S'true'
p785
ssaa(lp786
S'lilypad328'
p787
a(dp788
S'build'
p789
(dp790
S'core'
p791
S'arduino'
p792
sS'mcu'
p793
S'atmega328p'
p794
sS'f_cpu'
p795
S'8000000L'
p796
sS'variant'
p797
S'standard'
p798
ssS'bootloader'
p799
(dp800
S'extended_fuses'
p801
S'0x05'
p802
sS'high_fuses'
p803
S'0xDA'
p804
sS'low_fuses'
p805
S'0xFF'
p806
sS'lock_bits'
p807
S'0x0F'
p808
sS'file'
p809
S'ATmegaBOOT_168_atmega328_pro_8MHz.hex'
p810
sS'path'
p811
S'atmega'
p812
sS'unlock_bits'
p813
S'0x3F'
p814
ssS'name'
p815
S'LilyPad Arduino w/ ATmega328'
p816
sS'upload'
p817
(dp818
S'speed'
p819
S'57600'
p820
sS'maximum_size'
p821
S'30720'
p822
sS'protocol'
p823
S'arduino'
p824
ssaa(lp825
S'lilypad'
p826
a(dp827
S'build'
p828
(dp829
S'core'
p830
S'arduino'
p831
sS'mcu'
p832
S'atmega168'
p833
sS'f_cpu'
p834
S'8000000L'
p835
sS'variant'
p836
S'standard'
p837
ssS'bootloader'
p838
(dp839
S'extended_fuses'
p840
S'0x00'
p841
sS'high_fuses'
p842
S'0xdd'
p843
sS'low_fuses'
p844
S'0xe2'
p845
sS'lock_bits'
p846
S'0x0F'
p847
sS'file'
p848
S'LilyPadBOOT_168.hex'
p849
sS'path'
p850
S'lilypad'
p851
sS'unlock_bits'
p852
S'0x3F'
p853
ssS'name'
p854
S'LilyPad Arduino w/ ATmega168'
p855
sS'upload'
p856
(dp857
S'speed'
p858
S'19200'
p859
sS'maximum_size'
p860
S'14336'
p861
sS'protocol'
p862
S'arduino'
p863
ssaa(lp864
S'pro5v328'
p865
a(dp866
S'build'
p867
(dp868
S'core'
p869
S'arduino'
p870
sS'mcu'
p871
S'atmega328p'
p872
sS'f_cpu'
p873
S'16000000L'
p874
sS'variant'
p875
S'standard'
p876
ssS'bootloader'
p877
(dp878
S'extended_fuses'
p879
S'0x05'
p880
sS'high_fuses'
p881
S'0xDA'
p882
sS'low_fuses'
p883
S'0xFF'
p884
sS'lock_bits'
p885
S'0x0F'
p886
sS'file'
p887
S'ATmegaBOOT_168_atmega328.hex'
p888
sS'path'
p889
S'atmega'
p890
sS'unlock_bits'
p891
S'0x3F'
p892
ssS'name'
p893
S'Arduino Pro or Pro Mini (5V, 16 MHz) w/ ATmega328'
p894
sS'upload'
p895
(dp896
S'speed'
p897
S'57600'
p898
sS'maximum_size'
p899
S'30720'
p900
sS'protocol'
p901
S'arduino'
p902
ssaa(lp903
S'pro5v'
p904
a(dp905
S'build'
p906
(dp907
S'core'
p908
S'arduino'
p909
sS'mcu'
p910
S'atmega168'
p911
sS'f_cpu'
p912
S'16000000L'
p913
sS'variant'
p914
S'standard'
p915
ssS'bootloader'
p916
(dp917
S'extended_fuses'
p918
S'0x00'
p919
sS'high_fuses'
p920
S'0xdd'
p921
sS'low_fuses'
p922
S'0xff'
p923
sS'lock_bits'
p924
S'0x0F'
p925
sS'file'
p926
S'ATmegaBOOT_168_diecimila.hex'
p927
sS'path'
p928
S'atmega'
p929
sS'unlock_bits'
p930
S'0x3F'
p931
ssS'name'
p932
S'Arduino Pro or Pro Mini (5V, 16 MHz) w/ ATmega168'
p933
sS'upload'
p934
(dp935
S'speed'
p936
S'19200'
p937
sS'maximum_size'
p938
S'14336'
p939
sS'protocol'
p940
S'arduino'
p941
ssaa(lp942
S'pro328'
p943
a(dp944
S'build'
p945
(dp946
S'core'
p947
S'arduino'
p948
sS'mcu'
p949
S'atmega328p'
p950
sS'f_cpu'
p951
S'8000000L'
p952
sS'variant'
p953
S'standard'
p954
ssS'bootloader'
p955
(dp956
S'extended_fuses'
p957
S'0x05'
p958
sS'high_fuses'
p959
S'0xDA'
p960
sS'low_fuses'
p961
S'0xFF'
p962
sS'lock_bits'
p963
S'0x0F'
p964
sS'file'
p965
S'ATmegaBOOT_168_atmega328_pro_8MHz.hex'
p966
sS'path'
p967
S'atmega'
p968
sS'unlock_bits'
p969
S'0x3F'
p970
ssS'name'
p971
S'Arduino Pro or Pro Mini (3.3V, 8 MHz) w/ ATmega328'
p972
sS'upload'
p973
(dp974
S'speed'
p975
S'57600'
p976
sS'maximum_size'
p977
S'30720'
p978
sS'protocol'
p979
S'arduino'
p980
ssaa(lp981
S'pro'
p982
a(dp983
S'build'
p984
(dp985
S'core'
p986
S'arduino'
p987
sS'mcu'
p988
S'atmega168'
p989
sS'f_cpu'
p990
S'8000000L'
p991
sS'variant'
p992
S'standard'
p993
ssS'bootloader'
p994
(dp995
S'extended_fuses'
p996
S'0x00'
p997
sS'high_fuses'
p998
S'0xdd'
p999
sS'low_fuses'
p1000
S'0xc6'
p1001
sS'lock_bits'
p1002
S'0x0F'
p1003
sS'file'
p1004
S'ATmegaBOOT_168_pro_8MHz.hex'
p1005
sS'path'
p1006
S'atmega'
p1007
sS'unlock_bits'
p1008
S'0x3F'
p1009
ssS'name'
p1010
S'Arduino Pro or Pro Mini (3.3V, 8 MHz) w/ ATmega168'
p1011
sS'upload'
p1012
(dp1013
S'speed'
p1014
S'19200'
p1015
sS'maximum_size'
p1016
S'14336'
p1017
sS'protocol'
p1018
S'arduino'
p1019
ssaa(lp1020
S'atmega168'
p1021
a(dp1022
S'build'
p1023
(dp1024
S'core'
p1025
S'arduino'
p1026
sS'mcu'
p1027
S'atmega168'
p1028
sS'f_cpu'
p1029
S'16000000L'
p1030
sS'variant'
p1031
S'standard'
p1032
ssS'bootloader'
p1033
(dp1034
S'extended_fuses'
p1035
S'0x00'
p1036
sS'high_fuses'
p1037
S'0xdd'
p1038
sS'low_fuses'
p1039
S'0xff'
p1040
sS'lock_bits'
p1041
S'0x0F'
p1042
sS'file'
p1043
S'ATmegaBOOT_168_ng.hex'
p1044
sS'path'
p1045
S'atmega'
p1046
sS'unlock_bits'
p1047
S'0x3F'
p1048
ssS'name'
p1049
S'Arduino NG or older w/ ATmega168'
p1050
sS'upload'
p1051
(dp1052
S'speed'
p1053
S'19200'
p1054
sS'maximum_size'
p1055
S'14336'
p1056
sS'protocol'
p1057
S'arduino'
p1058
ssaa(lp1059
S'atmega8'
p1060
a(dp1061
S'build'
p1062
(dp1063
S'core'
p1064
S'arduino'
p1065
sS'mcu'
p1066
S'atmega8'
p1067
sS'f_cpu'
p1068
S'16000000L'
p1069
sS'variant'
p1070
S'standard'
p1071
ssS'bootloader'
p1072
(dp1073
S'high_fuses'
p1074
S'0xca'
p1075
sS'low_fuses'
p1076
S'0xdf'
p1077
sS'lock_bits'
p1078
S'0x0F'
p1079
sS'file'
p1080
S'ATmegaBOOT-prod-firmware-2009-11-07.hex'
p1081
sS'path'
p1082
S'atmega8'
p1083
sS'unlock_bits'
p1084
S'0x3F'
p1085
ssS'name'
p1086
S'Arduino NG or older w/ ATmega8'
p1087
sS'upload'
p1088
(dp1089
S'speed'
p1090
S'19200'
p1091
sS'maximum_size'
p1092
S'7168'
p1093
sS'protocol'
p1094
S'arduino'
p1095
ssaa(lp1096
S'robotControl'
p1097
a(dp1098
S'build'
p1099
(dp1100
S'core'
p1101
S'robot'
p1102
sS'f_cpu'
p1103
S'16000000L'
p1104
sS'vid'
p1105
S'0x2341'
p1106
sS'pid'
p1107
S'0x8038'
p1108
sS'variant'
p1109
S'robot_control'
p1110
sS'mcu'
p1111
S'atmega32u4'
p1112
ssS'bootloader'
p1113
(dp1114
S'extended_fuses'
p1115
S'0xcb'
p1116
sS'high_fuses'
p1117
S'0xd8'
p1118
sS'low_fuses'
p1119
S'0xff'
p1120
sS'lock_bits'
p1121
S'0x2F'
p1122
sS'file'
p1123
S'Caterina-Robot-Control.hex'
p1124
sS'path'
p1125
S'caterina-Arduino_Robot'
p1126
sS'unlock_bits'
p1127
S'0x3F'
p1128
ssS'name'
p1129
S'Arduino Robot Control'
p1130
sS'upload'
p1131
(dp1132
S'speed'
p1133
S'57600'
p1134
sS'maximum_size'
p1135
S'28672'
p1136
sS'protocol'
p1137
S'avr109'
p1138
sS'disable_flushing'
p1139
S'true'
p1140
ssaa(lp1141
S'robotMotor'
p1142
a(dp1143
S'build'
p1144
(dp1145
S'core'
p1146
S'robot'
p1147
sS'f_cpu'
p1148
S'16000000L'
p1149
sS'vid'
p1150
S'0x2341'
p1151
sS'pid'
p1152
S'0x8039'
p1153
sS'variant'
p1154
S'robot_motor'
p1155
sS'mcu'
p1156
S'atmega32u4'
p1157
ssS'bootloader'
p1158
(dp1159
S'extended_fuses'
p1160
S'0xcb'
p1161
sS'high_fuses'
p1162
S'0xd8'
p1163
sS'low_fuses'
p1164
S'0xff'
p1165
sS'lock_bits'
p1166
S'0x2F'
p1167
sS'file'
p1168
S'Caterina-Robot-Motor.hex'
p1169
sS'path'
p1170
S'caterina-Arduino_Robot'
p1171
sS'unlock_bits'
p1172
S'0x3F'
p1173
ssS'name'
p1174
S'Arduino Robot Motor'
p1175
sS'upload'
p1176
(dp1177
S'speed'
p1178
S'57600'
p1179
sS'maximum_size'
p1180
S'28672'
p1181
sS'protocol'
p1182
S'avr109'
p1183
sS'disable_flushing'
p1184
S'true'
p1185
ssaatp1186
Rp1187
(dp1188
S'default'
p1189
S'uno'
p1190
sbtp1191
a(S'cxx'
p1192
S'/usr/share/arduino/hardware/tools/avr/bin/avr-g++'
p1193
tp1194
a.