(lp0
(S'cppflags'
p1
ccopy_reg
_reconstructor
p2
(cino.utils
SpaceList
p3
c__builtin__
list
p4
(lp5
S'-mmcu=atmega328p'
p6
aS'-DF_CPU=16000000L'
p7
aS'-DARDUINO=105'
p8
aS'-I/usr/share/arduino/hardware/arduino/cores/arduino'
p9
aS'-ffunction-sections'
p10
aS'-fdata-sections'
p11
aS'-g'
p12
aS'-Os'
p13
aS'-w'
p14
aS'-I/usr/share/arduino/hardware/arduino/variants/standard'
p15
aS'-Ilib/Library'
p16
aS'-Ilib/RedBot'
p17
aS'-I/usr/share/arduino/hardware/arduino/cores/arduino'
p18
aS'-I/usr/share/arduino/hardware/arduino/cores/arduino/avr-libc'
p19
atp20
Rp21
tp22
a(S'cxx'
p23
S'/usr/share/arduino/hardware/tools/avr/bin/avr-g++'
p24
tp25
a(S'version.txt'
p26
S'/usr/share/arduino/lib/version.txt'
p27
tp28
a(S'used_libs'
p29
(lp30
S'lib/Library'
p31
aS'lib/RedBot'
p32
aS'/usr/share/arduino/hardware/arduino/cores/arduino'
p33
atp34
a(S'cc'
p35
S'/usr/share/arduino/hardware/tools/avr/bin/avr-gcc'
p36
tp37
a(S'make'
p38
S'/usr/share/arduino/hardware/tools/avr/bin/make'
p39
tp40
a(S'cflags'
p41
g2
(g3
g4
(lp42
tp43
Rp44
tp45
a(S'build_dir'
p46
S'.build/uno'
p47
tp48
a(S'arduino_core_dir'
p49
g33
tp50
a(S'boards.txt'
p51
S'/usr/share/arduino/hardware/arduino/boards.txt'
p52
tp53
a(S'cxxflags'
p54
g2
(g3
g4
(lp55
S'-fno-exceptions'
p56
atp57
Rp58
tp59
a(S'arduino_variants_dir'
p60
S'/usr/share/arduino/hardware/arduino/variants'
p61
tp62
a(S'ar'
p63
S'/usr/share/arduino/hardware/tools/avr/bin/avr-ar'
p64
tp65
a(S'names'
p66
(dp67
S'cpp'
p68
S'%s.cpp'
p69
sS'obj'
p70
S'%s.o'
p71
sS'deps'
p72
S'%s.d'
p73
sS'lib'
p74
S'lib%s.a'
p75
stp76
a(S'deps'
p77
g2
(g3
g4
(lp78
S'.build/uno/src/dependencies.d'
p79
aS'.build/uno/arduino/dependencies.d'
p80
aS'.build/uno/Library/dependencies.d'
p81
aS'.build/uno/RedBot/dependencies.d'
p82
atp83
Rp84
tp85
a(S'arduino_libraries_dir'
p86
S'/usr/share/arduino/libraries'
p87
tp88
a(S'arduino_lib_version'
p89
g2
(cino.environment
Version
p90
c__builtin__
tuple
p91
(I1
I0
I5
tp92
tp93
Rp94
tp95
a(S'objcopy'
p96
S'/usr/share/arduino/hardware/tools/avr/bin/avr-objcopy'
p97
tp98
a(S'board_models'
p99
cino.environment
BoardModels
p100
((lp101
(lp102
S'uno'
p103
a(dp104
S'bootloader'
p105
(dp106
S'extended_fuses'
p107
S'0x05'
p108
sS'high_fuses'
p109
S'0xde'
p110
sS'low_fuses'
p111
S'0xff'
p112
sS'lock_bits'
p113
S'0x0F'
p114
sS'file'
p115
S'optiboot_atmega328.hex'
p116
sS'path'
p117
S'optiboot'
p118
sS'unlock_bits'
p119
S'0x3F'
p120
ssS'upload'
p121
(dp122
S'protocol'
p123
S'arduino'
p124
sS'maximum_size'
p125
S'32256'
p126
sS'speed'
p127
S'115200'
p128
ssS'build'
p129
(dp130
S'core'
p131
S'arduino'
p132
sS'mcu'
p133
S'atmega328p'
p134
sS'f_cpu'
p135
S'16000000L'
p136
sS'variant'
p137
S'standard'
p138
ssS'name'
p139
S'Arduino Uno'
p140
saa(lp141
S'atmega328'
p142
a(dp143
S'bootloader'
p144
(dp145
S'extended_fuses'
p146
S'0x05'
p147
sS'high_fuses'
p148
S'0xDA'
p149
sS'low_fuses'
p150
S'0xFF'
p151
sS'lock_bits'
p152
S'0x0F'
p153
sS'file'
p154
S'ATmegaBOOT_168_atmega328.hex'
p155
sS'path'
p156
S'atmega'
p157
sS'unlock_bits'
p158
S'0x3F'
p159
ssS'upload'
p160
(dp161
S'protocol'
p162
S'arduino'
p163
sS'maximum_size'
p164
S'30720'
p165
sS'speed'
p166
S'57600'
p167
ssS'build'
p168
(dp169
S'core'
p170
S'arduino'
p171
sS'mcu'
p172
S'atmega328p'
p173
sS'f_cpu'
p174
S'16000000L'
p175
sS'variant'
p176
S'standard'
p177
ssS'name'
p178
S'Arduino Duemilanove w/ ATmega328'
p179
saa(lp180
S'diecimila'
p181
a(dp182
S'bootloader'
p183
(dp184
S'extended_fuses'
p185
S'0x00'
p186
sS'high_fuses'
p187
S'0xdd'
p188
sS'low_fuses'
p189
S'0xff'
p190
sS'lock_bits'
p191
S'0x0F'
p192
sS'file'
p193
S'ATmegaBOOT_168_diecimila.hex'
p194
sS'path'
p195
S'atmega'
p196
sS'unlock_bits'
p197
S'0x3F'
p198
ssS'upload'
p199
(dp200
S'protocol'
p201
S'arduino'
p202
sS'maximum_size'
p203
S'14336'
p204
sS'speed'
p205
S'19200'
p206
ssS'build'
p207
(dp208
S'core'
p209
S'arduino'
p210
sS'mcu'
p211
S'atmega168'
p212
sS'f_cpu'
p213
S'16000000L'
p214
sS'variant'
p215
S'standard'
p216
ssS'name'
p217
S'Arduino Diecimila or Duemilanove w/ ATmega168'
p218
saa(lp219
S'nano328'
p220
a(dp221
S'bootloader'
p222
(dp223
S'extended_fuses'
p224
S'0x05'
p225
sS'high_fuses'
p226
S'0xDA'
p227
sS'low_fuses'
p228
S'0xFF'
p229
sS'lock_bits'
p230
S'0x0F'
p231
sS'file'
p232
S'ATmegaBOOT_168_atmega328.hex'
p233
sS'path'
p234
S'atmega'
p235
sS'unlock_bits'
p236
S'0x3F'
p237
ssS'upload'
p238
(dp239
S'protocol'
p240
S'arduino'
p241
sS'maximum_size'
p242
S'30720'
p243
sS'speed'
p244
S'57600'
p245
ssS'build'
p246
(dp247
S'core'
p248
S'arduino'
p249
sS'mcu'
p250
S'atmega328p'
p251
sS'f_cpu'
p252
S'16000000L'
p253
sS'variant'
p254
S'eightanaloginputs'
p255
ssS'name'
p256
S'Arduino Nano w/ ATmega328'
p257
saa(lp258
S'nano'
p259
a(dp260
S'bootloader'
p261
(dp262
S'extended_fuses'
p263
S'0x00'
p264
sS'high_fuses'
p265
S'0xdd'
p266
sS'low_fuses'
p267
S'0xff'
p268
sS'lock_bits'
p269
S'0x0F'
p270
sS'file'
p271
S'ATmegaBOOT_168_diecimila.hex'
p272
sS'path'
p273
S'atmega'
p274
sS'unlock_bits'
p275
S'0x3F'
p276
ssS'upload'
p277
(dp278
S'protocol'
p279
S'arduino'
p280
sS'maximum_size'
p281
S'14336'
p282
sS'speed'
p283
S'19200'
p284
ssS'build'
p285
(dp286
S'core'
p287
S'arduino'
p288
sS'mcu'
p289
S'atmega168'
p290
sS'f_cpu'
p291
S'16000000L'
p292
sS'variant'
p293
S'eightanaloginputs'
p294
ssS'name'
p295
S'Arduino Nano w/ ATmega168'
p296
saa(lp297
S'mega2560'
p298
a(dp299
S'bootloader'
p300
(dp301
S'extended_fuses'
p302
S'0xFD'
p303
sS'high_fuses'
p304
S'0xD8'
p305
sS'low_fuses'
p306
S'0xFF'
p307
sS'lock_bits'
p308
S'0x0F'
p309
sS'file'
p310
S'stk500boot_v2_mega2560.hex'
p311
sS'path'
p312
S'stk500v2'
p313
sS'unlock_bits'
p314
S'0x3F'
p315
ssS'upload'
p316
(dp317
S'protocol'
p318
S'wiring'
p319
sS'maximum_size'
p320
S'258048'
p321
sS'speed'
p322
S'115200'
p323
ssS'build'
p324
(dp325
S'core'
p326
S'arduino'
p327
sS'mcu'
p328
S'atmega2560'
p329
sS'f_cpu'
p330
S'16000000L'
p331
sS'variant'
p332
S'mega'
p333
ssS'name'
p334
S'Arduino Mega 2560 or Mega ADK'
p335
saa(lp336
S'mega'
p337
a(dp338
S'bootloader'
p339
(dp340
S'extended_fuses'
p341
S'0xF5'
p342
sS'high_fuses'
p343
S'0xDA'
p344
sS'low_fuses'
p345
S'0xFF'
p346
sS'lock_bits'
p347
S'0x0F'
p348
sS'file'
p349
S'ATmegaBOOT_168_atmega1280.hex'
p350
sS'path'
p351
S'atmega'
p352
sS'unlock_bits'
p353
S'0x3F'
p354
ssS'upload'
p355
(dp356
S'protocol'
p357
S'arduino'
p358
sS'maximum_size'
p359
S'126976'
p360
sS'speed'
p361
S'57600'
p362
ssS'build'
p363
(dp364
S'core'
p365
S'arduino'
p366
sS'mcu'
p367
S'atmega1280'
p368
sS'f_cpu'
p369
S'16000000L'
p370
sS'variant'
p371
S'mega'
p372
ssS'name'
p373
S'Arduino Mega (ATmega1280)'
p374
saa(lp375
S'leonardo'
p376
a(dp377
S'bootloader'
p378
(dp379
S'extended_fuses'
p380
S'0xcb'
p381
sS'high_fuses'
p382
S'0xd8'
p383
sS'low_fuses'
p384
S'0xff'
p385
sS'lock_bits'
p386
S'0x2F'
p387
sS'file'
p388
S'Caterina-Leonardo.hex'
p389
sS'path'
p390
S'caterina'
p391
sS'unlock_bits'
p392
S'0x3F'
p393
ssS'upload'
p394
(dp395
S'protocol'
p396
S'avr109'
p397
sS'maximum_size'
p398
S'28672'
p399
sS'speed'
p400
S'57600'
p401
sS'disable_flushing'
p402
S'true'
p403
ssS'build'
p404
(dp405
S'core'
p406
S'arduino'
p407
sS'f_cpu'
p408
S'16000000L'
p409
sS'vid'
p410
S'0x2341'
p411
sS'pid'
p412
S'0x8036'
p413
sS'variant'
p414
S'leonardo'
p415
sS'mcu'
p416
S'atmega32u4'
p417
ssS'name'
p418
S'Arduino Leonardo'
p419
saa(lp420
S'esplora'
p421
a(dp422
S'bootloader'
p423
(dp424
S'extended_fuses'
p425
S'0xcb'
p426
sS'high_fuses'
p427
S'0xd8'
p428
sS'low_fuses'
p429
S'0xff'
p430
sS'lock_bits'
p431
S'0x2F'
p432
sS'file'
p433
S'Caterina-Esplora.hex'
p434
sS'path'
p435
S'caterina'
p436
sS'unlock_bits'
p437
S'0x3F'
p438
ssS'upload'
p439
(dp440
S'protocol'
p441
S'avr109'
p442
sS'maximum_size'
p443
S'28672'
p444
sS'speed'
p445
S'57600'
p446
sS'disable_flushing'
p447
S'true'
p448
ssS'build'
p449
(dp450
S'core'
p451
S'arduino'
p452
sS'f_cpu'
p453
S'16000000L'
p454
sS'vid'
p455
S'0x2341'
p456
sS'pid'
p457
S'0x803C'
p458
sS'variant'
p459
S'leonardo'
p460
sS'mcu'
p461
S'atmega32u4'
p462
ssS'name'
p463
S'Arduino Esplora'
p464
saa(lp465
S'micro'
p466
a(dp467
S'bootloader'
p468
(dp469
S'extended_fuses'
p470
S'0xcb'
p471
sS'high_fuses'
p472
S'0xd8'
p473
sS'low_fuses'
p474
S'0xff'
p475
sS'lock_bits'
p476
S'0x2F'
p477
sS'file'
p478
S'Caterina-Micro.hex'
p479
sS'path'
p480
S'caterina'
p481
sS'unlock_bits'
p482
S'0x3F'
p483
ssS'upload'
p484
(dp485
S'protocol'
p486
S'avr109'
p487
sS'maximum_size'
p488
S'28672'
p489
sS'speed'
p490
S'57600'
p491
sS'disable_flushing'
p492
S'true'
p493
ssS'build'
p494
(dp495
S'core'
p496
S'arduino'
p497
sS'f_cpu'
p498
S'16000000L'
p499
sS'vid'
p500
S'0x2341'
p501
sS'pid'
p502
S'0x8037'
p503
sS'variant'
p504
S'micro'
p505
sS'mcu'
p506
S'atmega32u4'
p507
ssS'name'
p508
S'Arduino Micro'
p509
saa(lp510
S'mini328'
p511
a(dp512
S'bootloader'
p513
(dp514
S'extended_fuses'
p515
S'0x05'
p516
sS'high_fuses'
p517
S'0xd8'
p518
sS'low_fuses'
p519
S'0xff'
p520
sS'lock_bits'
p521
S'0x0F'
p522
sS'file'
p523
S'optiboot_atmega328-Mini.hex'
p524
sS'path'
p525
S'optiboot'
p526
sS'unlock_bits'
p527
S'0x3F'
p528
ssS'upload'
p529
(dp530
S'protocol'
p531
S'arduino'
p532
sS'maximum_size'
p533
S'28672'
p534
sS'speed'
p535
S'115200'
p536
ssS'build'
p537
(dp538
S'core'
p539
S'arduino'
p540
sS'mcu'
p541
S'atmega328p'
p542
sS'f_cpu'
p543
S'16000000L'
p544
sS'variant'
p545
S'eightanaloginputs'
p546
ssS'name'
p547
S'Arduino Mini w/ ATmega328'
p548
saa(lp549
S'mini'
p550
a(dp551
S'bootloader'
p552
(dp553
S'extended_fuses'
p554
S'0x00'
p555
sS'high_fuses'
p556
S'0xdd'
p557
sS'low_fuses'
p558
S'0xff'
p559
sS'lock_bits'
p560
S'0x0F'
p561
sS'file'
p562
S'ATmegaBOOT_168_ng.hex'
p563
sS'path'
p564
S'atmega'
p565
sS'unlock_bits'
p566
S'0x3F'
p567
ssS'upload'
p568
(dp569
S'protocol'
p570
S'arduino'
p571
sS'maximum_size'
p572
S'14336'
p573
sS'speed'
p574
S'19200'
p575
ssS'build'
p576
(dp577
S'core'
p578
S'arduino'
p579
sS'mcu'
p580
S'atmega168'
p581
sS'f_cpu'
p582
S'16000000L'
p583
sS'variant'
p584
S'eightanaloginputs'
p585
ssS'name'
p586
S'Arduino Mini w/ ATmega168'
p587
saa(lp588
S'ethernet'
p589
a(dp590
S'bootloader'
p591
(dp592
S'extended_fuses'
p593
S'0x05'
p594
sS'high_fuses'
p595
S'0xde'
p596
sS'low_fuses'
p597
S'0xff'
p598
sS'lock_bits'
p599
S'0x0F'
p600
sS'file'
p601
S'optiboot_atmega328.hex'
p602
sS'path'
p603
S'optiboot'
p604
sS'unlock_bits'
p605
S'0x3F'
p606
ssS'upload'
p607
(dp608
S'protocol'
p609
S'arduino'
p610
sS'maximum_size'
p611
S'32256'
p612
sS'speed'
p613
S'115200'
p614
ssS'build'
p615
(dp616
S'variant'
p617
S'standard'
p618
sS'mcu'
p619
S'atmega328p'
p620
sS'f_cpu'
p621
S'16000000L'
p622
sS'core'
p623
S'arduino'
p624
ssS'name'
p625
S'Arduino Ethernet'
p626
saa(lp627
S'fio'
p628
a(dp629
S'bootloader'
p630
(dp631
S'extended_fuses'
p632
S'0x05'
p633
sS'high_fuses'
p634
S'0xDA'
p635
sS'low_fuses'
p636
S'0xFF'
p637
sS'lock_bits'
p638
S'0x0F'
p639
sS'file'
p640
S'ATmegaBOOT_168_atmega328_pro_8MHz.hex'
p641
sS'path'
p642
S'arduino:atmega'
p643
sS'unlock_bits'
p644
S'0x3F'
p645
ssS'upload'
p646
(dp647
S'protocol'
p648
S'arduino'
p649
sS'maximum_size'
p650
S'30720'
p651
sS'speed'
p652
S'57600'
p653
ssS'build'
p654
(dp655
S'core'
p656
S'arduino'
p657
sS'mcu'
p658
S'atmega328p'
p659
sS'f_cpu'
p660
S'8000000L'
p661
sS'variant'
p662
S'eightanaloginputs'
p663
ssS'name'
p664
S'Arduino Fio'
p665
saa(lp666
S'bt328'
p667
a(dp668
S'bootloader'
p669
(dp670
S'extended_fuses'
p671
S'0x05'
p672
sS'high_fuses'
p673
S'0xd8'
p674
sS'low_fuses'
p675
S'0xff'
p676
sS'lock_bits'
p677
S'0x0F'
p678
sS'file'
p679
S'ATmegaBOOT_168_atmega328_bt.hex'
p680
sS'path'
p681
S'bt'
p682
sS'unlock_bits'
p683
S'0x3F'
p684
ssS'upload'
p685
(dp686
S'protocol'
p687
S'arduino'
p688
sS'maximum_size'
p689
S'28672'
p690
sS'speed'
p691
S'19200'
p692
sS'disable_flushing'
p693
S'true'
p694
ssS'build'
p695
(dp696
S'core'
p697
S'arduino'
p698
sS'mcu'
p699
S'atmega328p'
p700
sS'f_cpu'
p701
S'16000000L'
p702
sS'variant'
p703
S'eightanaloginputs'
p704
ssS'name'
p705
S'Arduino BT w/ ATmega328'
p706
saa(lp707
S'bt'
p708
a(dp709
S'bootloader'
p710
(dp711
S'extended_fuses'
p712
S'0x00'
p713
sS'high_fuses'
p714
S'0xdd'
p715
sS'low_fuses'
p716
S'0xff'
p717
sS'lock_bits'
p718
S'0x0F'
p719
sS'file'
p720
S'ATmegaBOOT_168.hex'
p721
sS'path'
p722
S'bt'
p723
sS'unlock_bits'
p724
S'0x3F'
p725
ssS'upload'
p726
(dp727
S'protocol'
p728
S'arduino'
p729
sS'maximum_size'
p730
S'14336'
p731
sS'speed'
p732
S'19200'
p733
sS'disable_flushing'
p734
S'true'
p735
ssS'build'
p736
(dp737
S'core'
p738
S'arduino'
p739
sS'mcu'
p740
S'atmega168'
p741
sS'f_cpu'
p742
S'16000000L'
p743
sS'variant'
p744
S'eightanaloginputs'
p745
ssS'name'
p746
S'Arduino BT w/ ATmega168'
p747
saa(lp748
S'LilyPadUSB'
p749
a(dp750
S'bootloader'
p751
(dp752
S'extended_fuses'
p753
S'0xce'
p754
sS'high_fuses'
p755
S'0xd8'
p756
sS'low_fuses'
p757
S'0xff'
p758
sS'lock_bits'
p759
S'0x2F'
p760
sS'file'
p761
S'Caterina-LilyPadUSB.hex'
p762
sS'path'
p763
S'caterina-LilyPadUSB'
p764
sS'unlock_bits'
p765
S'0x3F'
p766
ssS'upload'
p767
(dp768
S'protocol'
p769
S'avr109'
p770
sS'maximum_size'
p771
S'28672'
p772
sS'speed'
p773
S'57600'
p774
sS'disable_flushing'
p775
S'true'
p776
ssS'build'
p777
(dp778
S'core'
p779
S'arduino'
p780
sS'f_cpu'
p781
S'8000000L'
p782
sS'vid'
p783
S'0x1B4F'
p784
sS'pid'
p785
S'0x9208'
p786
sS'variant'
p787
S'leonardo'
p788
sS'mcu'
p789
S'atmega32u4'
p790
ssS'name'
p791
S'LilyPad Arduino USB'
p792
saa(lp793
S'lilypad328'
p794
a(dp795
S'bootloader'
p796
(dp797
S'extended_fuses'
p798
S'0x05'
p799
sS'high_fuses'
p800
S'0xDA'
p801
sS'low_fuses'
p802
S'0xFF'
p803
sS'lock_bits'
p804
S'0x0F'
p805
sS'file'
p806
S'ATmegaBOOT_168_atmega328_pro_8MHz.hex'
p807
sS'path'
p808
S'atmega'
p809
sS'unlock_bits'
p810
S'0x3F'
p811
ssS'upload'
p812
(dp813
S'protocol'
p814
S'arduino'
p815
sS'maximum_size'
p816
S'30720'
p817
sS'speed'
p818
S'57600'
p819
ssS'build'
p820
(dp821
S'core'
p822
S'arduino'
p823
sS'mcu'
p824
S'atmega328p'
p825
sS'f_cpu'
p826
S'8000000L'
p827
sS'variant'
p828
S'standard'
p829
ssS'name'
p830
S'LilyPad Arduino w/ ATmega328'
p831
saa(lp832
S'lilypad'
p833
a(dp834
S'bootloader'
p835
(dp836
S'extended_fuses'
p837
S'0x00'
p838
sS'high_fuses'
p839
S'0xdd'
p840
sS'low_fuses'
p841
S'0xe2'
p842
sS'lock_bits'
p843
S'0x0F'
p844
sS'file'
p845
S'LilyPadBOOT_168.hex'
p846
sS'path'
p847
S'lilypad'
p848
sS'unlock_bits'
p849
S'0x3F'
p850
ssS'upload'
p851
(dp852
S'protocol'
p853
S'arduino'
p854
sS'maximum_size'
p855
S'14336'
p856
sS'speed'
p857
S'19200'
p858
ssS'build'
p859
(dp860
S'core'
p861
S'arduino'
p862
sS'mcu'
p863
S'atmega168'
p864
sS'f_cpu'
p865
S'8000000L'
p866
sS'variant'
p867
S'standard'
p868
ssS'name'
p869
S'LilyPad Arduino w/ ATmega168'
p870
saa(lp871
S'pro5v328'
p872
a(dp873
S'bootloader'
p874
(dp875
S'extended_fuses'
p876
S'0x05'
p877
sS'high_fuses'
p878
S'0xDA'
p879
sS'low_fuses'
p880
S'0xFF'
p881
sS'lock_bits'
p882
S'0x0F'
p883
sS'file'
p884
S'ATmegaBOOT_168_atmega328.hex'
p885
sS'path'
p886
S'atmega'
p887
sS'unlock_bits'
p888
S'0x3F'
p889
ssS'upload'
p890
(dp891
S'protocol'
p892
S'arduino'
p893
sS'maximum_size'
p894
S'30720'
p895
sS'speed'
p896
S'57600'
p897
ssS'build'
p898
(dp899
S'core'
p900
S'arduino'
p901
sS'mcu'
p902
S'atmega328p'
p903
sS'f_cpu'
p904
S'16000000L'
p905
sS'variant'
p906
S'standard'
p907
ssS'name'
p908
S'Arduino Pro or Pro Mini (5V, 16 MHz) w/ ATmega328'
p909
saa(lp910
S'pro5v'
p911
a(dp912
S'bootloader'
p913
(dp914
S'extended_fuses'
p915
S'0x00'
p916
sS'high_fuses'
p917
S'0xdd'
p918
sS'low_fuses'
p919
S'0xff'
p920
sS'lock_bits'
p921
S'0x0F'
p922
sS'file'
p923
S'ATmegaBOOT_168_diecimila.hex'
p924
sS'path'
p925
S'atmega'
p926
sS'unlock_bits'
p927
S'0x3F'
p928
ssS'upload'
p929
(dp930
S'protocol'
p931
S'arduino'
p932
sS'maximum_size'
p933
S'14336'
p934
sS'speed'
p935
S'19200'
p936
ssS'build'
p937
(dp938
S'core'
p939
S'arduino'
p940
sS'mcu'
p941
S'atmega168'
p942
sS'f_cpu'
p943
S'16000000L'
p944
sS'variant'
p945
S'standard'
p946
ssS'name'
p947
S'Arduino Pro or Pro Mini (5V, 16 MHz) w/ ATmega168'
p948
saa(lp949
S'pro328'
p950
a(dp951
S'bootloader'
p952
(dp953
S'extended_fuses'
p954
S'0x05'
p955
sS'high_fuses'
p956
S'0xDA'
p957
sS'low_fuses'
p958
S'0xFF'
p959
sS'lock_bits'
p960
S'0x0F'
p961
sS'file'
p962
S'ATmegaBOOT_168_atmega328_pro_8MHz.hex'
p963
sS'path'
p964
S'atmega'
p965
sS'unlock_bits'
p966
S'0x3F'
p967
ssS'upload'
p968
(dp969
S'protocol'
p970
S'arduino'
p971
sS'maximum_size'
p972
S'30720'
p973
sS'speed'
p974
S'57600'
p975
ssS'build'
p976
(dp977
S'core'
p978
S'arduino'
p979
sS'mcu'
p980
S'atmega328p'
p981
sS'f_cpu'
p982
S'8000000L'
p983
sS'variant'
p984
S'standard'
p985
ssS'name'
p986
S'Arduino Pro or Pro Mini (3.3V, 8 MHz) w/ ATmega328'
p987
saa(lp988
S'pro'
p989
a(dp990
S'bootloader'
p991
(dp992
S'extended_fuses'
p993
S'0x00'
p994
sS'high_fuses'
p995
S'0xdd'
p996
sS'low_fuses'
p997
S'0xc6'
p998
sS'lock_bits'
p999
S'0x0F'
p1000
sS'file'
p1001
S'ATmegaBOOT_168_pro_8MHz.hex'
p1002
sS'path'
p1003
S'atmega'
p1004
sS'unlock_bits'
p1005
S'0x3F'
p1006
ssS'upload'
p1007
(dp1008
S'protocol'
p1009
S'arduino'
p1010
sS'maximum_size'
p1011
S'14336'
p1012
sS'speed'
p1013
S'19200'
p1014
ssS'build'
p1015
(dp1016
S'core'
p1017
S'arduino'
p1018
sS'mcu'
p1019
S'atmega168'
p1020
sS'f_cpu'
p1021
S'8000000L'
p1022
sS'variant'
p1023
S'standard'
p1024
ssS'name'
p1025
S'Arduino Pro or Pro Mini (3.3V, 8 MHz) w/ ATmega168'
p1026
saa(lp1027
S'atmega168'
p1028
a(dp1029
S'bootloader'
p1030
(dp1031
S'extended_fuses'
p1032
S'0x00'
p1033
sS'high_fuses'
p1034
S'0xdd'
p1035
sS'low_fuses'
p1036
S'0xff'
p1037
sS'lock_bits'
p1038
S'0x0F'
p1039
sS'file'
p1040
S'ATmegaBOOT_168_ng.hex'
p1041
sS'path'
p1042
S'atmega'
p1043
sS'unlock_bits'
p1044
S'0x3F'
p1045
ssS'upload'
p1046
(dp1047
S'protocol'
p1048
S'arduino'
p1049
sS'maximum_size'
p1050
S'14336'
p1051
sS'speed'
p1052
S'19200'
p1053
ssS'build'
p1054
(dp1055
S'core'
p1056
S'arduino'
p1057
sS'mcu'
p1058
S'atmega168'
p1059
sS'f_cpu'
p1060
S'16000000L'
p1061
sS'variant'
p1062
S'standard'
p1063
ssS'name'
p1064
S'Arduino NG or older w/ ATmega168'
p1065
saa(lp1066
S'atmega8'
p1067
a(dp1068
S'bootloader'
p1069
(dp1070
S'high_fuses'
p1071
S'0xca'
p1072
sS'low_fuses'
p1073
S'0xdf'
p1074
sS'lock_bits'
p1075
S'0x0F'
p1076
sS'file'
p1077
S'ATmegaBOOT-prod-firmware-2009-11-07.hex'
p1078
sS'path'
p1079
S'atmega8'
p1080
sS'unlock_bits'
p1081
S'0x3F'
p1082
ssS'upload'
p1083
(dp1084
S'protocol'
p1085
S'arduino'
p1086
sS'maximum_size'
p1087
S'7168'
p1088
sS'speed'
p1089
S'19200'
p1090
ssS'build'
p1091
(dp1092
S'core'
p1093
S'arduino'
p1094
sS'mcu'
p1095
S'atmega8'
p1096
sS'f_cpu'
p1097
S'16000000L'
p1098
sS'variant'
p1099
S'standard'
p1100
ssS'name'
p1101
S'Arduino NG or older w/ ATmega8'
p1102
saa(lp1103
S'robotControl'
p1104
a(dp1105
S'bootloader'
p1106
(dp1107
S'extended_fuses'
p1108
S'0xcb'
p1109
sS'high_fuses'
p1110
S'0xd8'
p1111
sS'low_fuses'
p1112
S'0xff'
p1113
sS'lock_bits'
p1114
S'0x2F'
p1115
sS'file'
p1116
S'Caterina-Robot-Control.hex'
p1117
sS'path'
p1118
S'caterina-Arduino_Robot'
p1119
sS'unlock_bits'
p1120
S'0x3F'
p1121
ssS'upload'
p1122
(dp1123
S'protocol'
p1124
S'avr109'
p1125
sS'maximum_size'
p1126
S'28672'
p1127
sS'speed'
p1128
S'57600'
p1129
sS'disable_flushing'
p1130
S'true'
p1131
ssS'build'
p1132
(dp1133
S'core'
p1134
S'robot'
p1135
sS'f_cpu'
p1136
S'16000000L'
p1137
sS'vid'
p1138
S'0x2341'
p1139
sS'pid'
p1140
S'0x8038'
p1141
sS'variant'
p1142
S'robot_control'
p1143
sS'mcu'
p1144
S'atmega32u4'
p1145
ssS'name'
p1146
S'Arduino Robot Control'
p1147
saa(lp1148
S'robotMotor'
p1149
a(dp1150
S'bootloader'
p1151
(dp1152
S'extended_fuses'
p1153
S'0xcb'
p1154
sS'high_fuses'
p1155
S'0xd8'
p1156
sS'low_fuses'
p1157
S'0xff'
p1158
sS'lock_bits'
p1159
S'0x2F'
p1160
sS'file'
p1161
S'Caterina-Robot-Motor.hex'
p1162
sS'path'
p1163
S'caterina-Arduino_Robot'
p1164
sS'unlock_bits'
p1165
S'0x3F'
p1166
ssS'upload'
p1167
(dp1168
S'protocol'
p1169
S'avr109'
p1170
sS'maximum_size'
p1171
S'28672'
p1172
sS'speed'
p1173
S'57600'
p1174
sS'disable_flushing'
p1175
S'true'
p1176
ssS'build'
p1177
(dp1178
S'core'
p1179
S'robot'
p1180
sS'f_cpu'
p1181
S'16000000L'
p1182
sS'vid'
p1183
S'0x2341'
p1184
sS'pid'
p1185
S'0x8039'
p1186
sS'variant'
p1187
S'robot_motor'
p1188
sS'mcu'
p1189
S'atmega32u4'
p1190
ssS'name'
p1191
S'Arduino Robot Motor'
p1192
saatp1193
Rp1194
(dp1195
S'default'
p1196
S'uno'
p1197
sbtp1198
a(S'ldflags'
p1199
g2
(g3
g4
(lp1200
g6
aS'-Wl,-Os'
p1201
aS'-Wl,--gc-sections'
p1202
atp1203
Rp1204
tp1205
a.